(dp1
S'A'
(dp2
S'C'
clinearCounter.linearCounter
linearCounter
p3
((dp4
S'H'
I4
sS'C'
I2
stRp5
sS'R'
g3
((dp6
S'C'
I1
sS'O'
I1
stRp7
sS'L'
g3
((dp8
S'H'
I1
sS'N'
I1
stRp9
ssS'C'
(dp10
S'C'
g3
((dp11
S'H'
I4
sS'C'
I2
sS'S'
I1
stRp12
sS'R'
g3
((dp13
S'C'
I1
sS'O'
I1
stRp14
sS'L'
g3
((dp15
S'H'
I1
sS'N'
I1
stRp16
ssS'E'
(dp17
S'C'
g3
((dp18
S'H'
I6
sS'C'
I4
sS'O'
I2
stRp19
sS'R'
g3
((dp20
S'C'
I1
sS'O'
I1
stRp21
sS'L'
g3
((dp22
S'H'
I1
sS'N'
I1
stRp23
ssS'D'
(dp24
S'C'
g3
((dp25
S'H'
I4
sS'C'
I3
sS'O'
I2
stRp26
sS'R'
g3
((dp27
S'C'
I1
sS'O'
I1
stRp28
sS'L'
g3
((dp29
S'H'
I1
sS'N'
I1
stRp30
ssS'G'
(dp31
S'C'
g3
((dp32
S'H'
I2
sS'C'
I1
stRp33
sS'R'
g3
((dp34
S'C'
I1
sS'O'
I1
stRp35
sS'L'
g3
((dp36
S'H'
I1
sS'N'
I1
stRp37
ssS'F'
(dp38
S'C'
g3
((dp39
S'H'
I8
sS'C'
I8
stRp40
sS'R'
g3
((dp41
S'C'
I1
sS'O'
I1
stRp42
sS'L'
g3
((dp43
S'H'
I1
sS'N'
I1
stRp44
ssS'I'
(dp45
S'C'
g3
((dp46
S'H'
I10
sS'C'
I5
stRp47
sS'R'
g3
((dp48
S'C'
I1
sS'O'
I1
stRp49
sS'L'
g3
((dp50
S'H'
I1
sS'N'
I1
stRp51
ssS'H'
(dp52
S'C'
g3
((dp53
S'H'
I6
sS'C'
I5
sS'N'
I2
stRp54
sS'R'
g3
((dp55
S'C'
I1
sS'O'
I1
stRp56
sS'L'
g3
((dp57
S'H'
I1
sS'N'
I1
stRp58
ssS'K'
(dp59
S'C'
g3
((dp60
S'H'
I11
sS'C'
I5
sS'N'
I1
stRp61
sS'R'
g3
((dp62
S'C'
I1
sS'O'
I1
stRp63
sS'L'
g3
((dp64
S'H'
I1
sS'N'
I1
stRp65
ssS'M'
(dp66
S'C'
g3
((dp67
S'H'
I8
sS'C'
I4
sS'S'
I1
stRp68
sS'R'
g3
((dp69
S'C'
I1
sS'O'
I1
stRp70
sS'L'
g3
((dp71
S'H'
I1
sS'N'
I1
stRp72
ssS'L'
(dp73
S'C'
g3
((dp74
S'H'
I10
sS'C'
I5
stRp75
sS'R'
g3
((dp76
S'C'
I1
sS'O'
I1
stRp77
sS'L'
g3
((dp78
S'H'
I1
sS'N'
I1
stRp79
ssS'N'
(dp80
S'C'
g3
((dp81
S'H'
I5
sS'C'
I3
sS'O'
I1
sS'N'
I1
stRp82
sS'R'
g3
((dp83
S'C'
I1
sS'O'
I1
stRp84
sS'L'
g3
((dp85
S'H'
I1
sS'N'
I1
stRp86
ssS'Q'
(dp87
S'C'
g3
((dp88
S'H'
I7
sS'C'
I4
sS'O'
I1
sS'N'
I1
stRp89
sS'R'
g3
((dp90
S'C'
I1
sS'O'
I1
stRp91
sS'L'
g3
((dp92
S'H'
I1
sS'N'
I1
stRp93
ssS'P'
(dp94
S'C'
g3
((dtRp95
sS'R'
g3
((dp96
S'C'
I1
sS'O'
I1
stRp97
sS'L'
g3
((dp98
S'H'
I7
sS'C'
I4
sS'N'
I1
stRp99
ssS'S'
(dp100
S'C'
g3
((dp101
S'H'
I4
sS'C'
I2
sS'O'
I1
stRp102
sS'R'
g3
((dp103
S'C'
I1
sS'O'
I1
stRp104
sS'L'
g3
((dp105
S'H'
I1
sS'N'
I1
stRp106
ssS'R'
(dp107
S'C'
g3
((dp108
S'H'
I11
sS'C'
I5
sS'N'
I3
stRp109
sS'R'
g3
((dp110
S'C'
I1
sS'O'
I1
stRp111
sS'L'
g3
((dp112
S'H'
I1
sS'N'
I1
stRp113
ssS'T'
(dp114
S'C'
g3
((dp115
S'H'
I6
sS'C'
I3
sS'O'
I1
stRp116
sS'R'
g3
((dp117
S'C'
I1
sS'O'
I1
stRp118
sS'L'
g3
((dp119
S'H'
I1
sS'N'
I1
stRp120
ssS'W'
(dp121
S'C'
g3
((dp122
S'H'
I9
sS'C'
I10
sS'N'
I1
stRp123
sS'R'
g3
((dp124
S'C'
I1
sS'O'
I1
stRp125
sS'L'
g3
((dp126
S'H'
I1
sS'N'
I1
stRp127
ssS'V'
(dp128
S'C'
g3
((dp129
S'H'
I8
sS'C'
I4
stRp130
sS'R'
g3
((dp131
S'C'
I1
sS'O'
I1
stRp132
sS'L'
g3
((dp133
S'H'
I1
sS'N'
I1
stRp134
ssS'Y'
(dp135
S'C'
g3
((dp136
S'H'
I8
sS'C'
I8
sS'O'
I1
stRp137
sS'R'
g3
((dp138
S'C'
I1
sS'O'
I1
stRp139
sS'L'
g3
((dp140
S'H'
I1
sS'N'
I1
stRp141
ss.