(ccollections
defaultdict
p1
(c__builtin__
list
p2
tRp3
S'Pr'
p4
(lp5
F140.90766200000002
asS'Ni'
p6
(lp7
F57.935342299999995
aF59.930786300000001
aF60.931056299999995
aF61.928345400000005
aF63.9279674
asS'Yb'
p8
(lp9
F167.93389199999999
aF169.93477200000001
aF170.93633199999999
aF171.93639199999998
aF172.938222
aF173.938872
aF175.94258200000002
asS'Pd'
p10
(lp11
F101.905602
aF103.9040311
aF104.90508090000002
aF105.90348090000002
aF107.9038929
aF109.9051726
asS'Pt'
p12
(lp13
F189.959934
aF191.96104199999999
aF193.96268169999999
aF194.9647927
aF195.96495269999997
aF197.96789200000001
asS'Ru'
p14
(lp15
F95.907590299999995
aF97.905295999999993
aF98.905934799999997
aF99.904214799999991
aF100.90557790000001
aF101.9043449
aF103.90543199999999
asS'Na'
p16
(lp17
F22.989769281999997
asS'Nb'
p18
(lp19
F92.90637199999999
asS'Nd'
p20
(lp21
F141.90773200000001
aF142.90982199999999
aF143.91009199999999
aF144.91258200000001
aF145.91312199999999
aF147.91690199999999
aF149.92090200000001
asS'Mg'
p22
(lp23
F23.985041701
aF24.985837029999999
aF25.982593019999999
asS'Li'
p24
(lp25
F6.0151228871000004
aF7.0160034429999998
asS'Dy'
p26
(lp27
F155.92428200000001
aF157.92442199999999
aF159.92520200000001
aF160.926942
aF161.92681200000001
aF162.928742
aF163.929182
asS'Y'
(lp28
F88.905842000000007
asS'Tl'
p29
(lp30
F202.97234509999998
aF204.97442809999998
asS'Tm'
p31
(lp32
F168.93422200000001
asS'Rb'
p33
(lp34
F84.911789743
aF86.909180536000008
asS'Ti'
p35
(lp36
F45.952628300000001
aF46.951759299999999
aF47.947942299999994
aF48.947866299999994
aF49.944787299999994
asS'Te'
p37
(lp38
F119.90406200000001
aF121.90304099999999
aF122.90427099999999
aF123.902821
aF124.904431
aF125.90331100000002
aF127.90446170000001
aF129.906222759
asS'Rh'
p39
(lp40
F102.905502
asS'Ta'
p41
(lp42
F179.947462
aF180.948002
asS'Be'
p43
(lp44
F9.0121831599999993
asS'Xe'
p45
(lp46
F123.90589199999999
aF125.904303
aF127.9035318
aF128.904780864
aF129.90350941
aF130.9050842
aF131.904155094
aF133.90539569999999
aF135.90721448799999
asS'Pa'
p47
(lp48
F231.03588199999999
asS'Ba'
p49
(lp50
F129.90632199999999
aF131.9050618
aF133.90450819999998
aF134.90568819999999
aF135.90457619999998
aF136.90582719999998
aF137.90524719999999
asS'Tb'
p51
(lp52
F158.925352
asS'La'
p53
(lp54
F137.90712299999998
aF138.906362
asS'Si'
p55
(lp56
F27.976926535300002
aF28.976494665300002
aF29.973770011999999
asS'As'
p57
(lp58
F74.921595700000012
asS'U'
(lp59
F234.040952
aF235.04393199999998
aF238.050792
asS'W'
(lp60
F179.94671200000002
aF181.94820469999999
aF182.95022370000001
aF183.95093169999998
aF185.954362
asS'Gd'
p61
(lp62
F151.919802
aF153.920872
aF154.92263199999999
aF155.922132
aF156.92397199999999
aF157.92411200000001
aF159.92706200000001
asS'Fe'
p63
(lp64
F53.939609300000001
aF55.934936300000004
aF56.935393299999994
aF57.933274300000001
asS'Br'
p65
(lp66
F78.9183381
aF80.916290099999998
asS'Sr'
p67
(lp68
F83.913419900000008
aF85.909261900000004
aF86.908878900000005
aF87.905613900000006
asS'Hf'
p69
(lp70
F173.94005200000001
aF175.94141200000001
aF176.94323199999999
aF177.943712
aF178.94582199999999
aF179.946562
asS'Mo'
p71
(lp72
F91.906808599999991
aF93.905085299999996
aF94.905839299999997
aF95.904676299999991
aF96.906018299999999
aF97.905405299999998
aF99.907472799999994
asS'He'
p73
(lp74
F3.0160293220000001
aF4.0026032541400003
asS'C'
(lp75
F12
aF13.0033548352
asS'B'
(lp76
F10.012937300000001
aF11.009305300000001
asS'F'
(lp77
F18.998403163699997
asS'I'
(lp78
F126.904473
asS'H'
(lp79
F1.0078250322700002
aF2.0141017781900001
asS'K'
(lp80
F38.963706493000004
aF39.963998240000002
aF40.961825263000001
asS'Mn'
p81
(lp82
F54.938044299999994
asS'Lu'
p83
(lp84
F174.94078200000001
aF175.94269199999999
asS'O'
(lp85
F15.994914620199999
aF16.999131757600001
aF17.999159613699998
asS'Ne'
p86
(lp87
F19.992440181999999
aF20.993846730000001
aF21.99138512
asS'P'
(lp88
F30.973761998600001
asS'S'
(lp89
F31.972071174099998
aF32.971458910100004
aF33.967867030000001
aF35.967081200000003
asS'Th'
p90
(lp91
F232.03806200000002
asS'Re'
p92
(lp93
F184.95295590000001
aF186.95575099999999
asS'Kr'
p94
(lp95
F77.920365599999997
aF79.916378600000002
aF81.9134837
aF82.914127199999996
aF83.911497733000004
aF85.91061063299999
asS'Sm'
p96
(lp97
F143.912012
aF146.91490200000001
aF147.91483200000002
aF148.917192
aF149.917282
aF151.91974199999999
aF153.922222
asS'V'
(lp98
F49.947156700000001
aF50.943957700000006
asS'Sc'
p99
(lp100
F44.955908600000001
asS'Sb'
p101
(lp102
F120.90381200000002
aF122.90421200000002
asS'Bi'
p103
(lp104
F208.980401
asS'N'
(lp105
F14.0030740042
aF15.000108899400001
asS'Os'
p106
(lp107
F183.95248909999998
aF185.95384099999998
aF186.95575099999999
aF187.95584099999999
aF188.95814199999998
aF189.95844199999999
aF191.96148200000002
asS'Se'
p108
(lp109
F73.922475910000003
aF75.919213720000002
aF76.919914259999999
aF77.917309200000005
aF79.916522900000004
aF81.9167001
asS'Hg'
p110
(lp111
F195.96583200000001
aF197.96676930000001
aF198.9682813
aF199.9683273
aF200.97030359999999
aF201.97064359999999
aF203.97349430000003
asS'Zn'
p112
(lp113
F63.929142599999999
aF65.926034700000002
aF66.927128699999997
aF67.924845700000006
aF69.925321999999994
asS'Co'
p114
(lp115
F58.933194400000005
asS'Ag'
p116
(lp117
F106.905092
aF108.9047551
asS'Cl'
p118
(lp119
F34.968852730000002
aF36.965902640000003
asS'Ca'
p120
(lp121
F39.962590919999997
aF41.958618100000002
aF42.958766199999999
aF43.955482200000006
aF45.953691999999997
aF47.952522889999997
asS'Ir'
p122
(lp123
F190.96059199999999
aF192.96292199999999
asS'Eu'
p124
(lp125
F150.91986200000002
aF152.92124200000001
asS'Al'
p126
(lp127
F26.981538579999999
asS'Ce'
p128
(lp129
F135.90712930000001
aF137.90599800000001
aF139.90544199999999
aF141.90925200000001
asS'Cd'
p130
(lp131
F105.90646090000001
aF107.90418390000002
aF109.90300740000001
aF110.90418340000001
aF111.90276340000001
aF112.90440829999999
aF113.90336529999999
aF115.9047632
asS'Ho'
p132
(lp133
F164.93033199999999
asS'Ge'
p134
(lp135
F69.924249700000004
aF71.922075860000007
aF72.923459039999997
aF73.92117776100001
aF75.921402720000003
asS'Ar'
p136
(lp137
F35.967545119999997
aF37.962732200000005
aF39.962383121999999
asS'Au'
p138
(lp139
F196.96656959999999
asS'Zr'
p140
(lp141
F89.904702
aF90.905642
aF91.905031999999991
aF93.906312
aF95.908271999999997
asS'Ga'
p142
(lp143
F68.925574900000001
aF70.924703699999995
asS'In'
p144
(lp145
F112.90406270000001
aF114.90387878899999
asS'Cs'
p146
(lp147
F132.905451967
asS'Cr'
p148
(lp149
F49.9460427
aF51.940506400000004
aF52.940648399999994
aF53.938879399999998
asS'Pb'
p150
(lp151
F203.97304489999999
aF205.97446690000001
aF206.97589790000001
aF207.9766539
asS'Er'
p152
(lp153
F161.92879199999999
aF163.92921200000001
aF165.93030200000001
aF166.932052
aF167.93238200000002
aF169.935472
asS'Cu'
p154
(lp155
F62.929598399999996
aF64.927790599999994
asS'Sn'
p156
(lp157
F111.9048244
aF113.9027837
aF114.90334471
aF115.90174309999999
aF116.9029543
aF117.90160729999998
aF118.90331159999999
aF119.9022027
aF121.903442
aF123.90527779999999
asg1
(g2
tRp158
g4
(lp159
F1
asg6
(lp160
F0.680769095231328
aF0.26223041961067101
aF0.011399083035777901
aF0.036346250253449001
aF0.0092551518687743004
asg8
(lp161
F0.0012329299695777302
aF0.029822206098693599
aF0.140905996539397
aF0.21680068572105102
aF0.16102725365199302
aF0.32024990980512297
aF0.129961018214165
asg10
(lp162
F0.010207550187954899
aF0.11146324882028301
aF0.223336399264177
aF0.27326441654002998
aF0.264546508837879
aF0.11718187634967599
asg12
(lp163
F0.00012198734991181398
aF0.0078215889012309414
aF0.32860592356572604
aF0.33778897128367796
aF0.25210785641528999
aF0.073553672484163404
asg14
(lp164
F0.055402974808013199
aF0.018726273471579201
aF0.127588609866637
aF0.126054915071901
aF0.17058605337537802
aF0.31545122520618396
aF0.18618994820030801
asg16
(lp165
F1
asg18
(lp166
F1
asg20
(lp167
F0.271519166958828
aF0.121740433020292
aF0.23797766399758105
aF0.082929723850915502
aF0.17189014035550199
aF0.057561075412857703
aF0.056381796404024
asg22
(lp168
F0.78987680985521203
aF0.100001999840013
aF0.110121190304776
asg24
(lp169
F0.075933925285977102
aF0.92406607471402291
asg26
(lp170
F0.00056298575646036202
aF0.00095297588970999004
aF0.023291210732368499
aF0.18888942109764603
aF0.25474715489698102
aF0.24895790136509499
aF0.28259835026173802
asS'Y'
(lp171
F1
asg29
(lp172
F0.29520409591808194
aF0.70479590408191806
asg31
(lp173
F1
asg33
(lp174
F0.72169113235470594
aF0.278308867645294
asg35
(lp175
F0.082520097588289404
aF0.074411070671519405
aF0.73714154301483792
aF0.054113506379234497
aF0.051813782346118498
asg37
(lp176
F0.0009097643710279039
aF0.025505394102927299
aF0.0089276877288782201
aF0.047401722953754999
aF0.070696689557404602
aF0.18837621056146497
aF0.31740779138203201
aF0.34077473934251001
asg39
(lp177
F1
asg41
(lp178
F0.000120131992311553
aF0.99987986800768791
asg43
(lp179
F1
asg45
(lp180
F0.00095229653364061796
aF0.00089019675968379493
aF0.0191028304656971
aF0.26400586901863698
aF0.0407099818156662
aF0.21232352714236102
aF0.26908535052932397
aF0.104356830141138
aF0.088573117593851988
asg47
(lp181
F1
asg49
(lp182
F0.00106098514620795
aF0.00101098584619815
aF0.024171461599537598
aF0.065920277116120404
aF0.078541300421794094
aF0.112320827508415
aF0.71697416236172706
asg51
(lp183
F1
asg53
(lp184
F0.00088817187210325093
aF0.99911182812789689
asg55
(lp185
F0.92222083334999994
aF0.046858437698747597
aF0.030920728951252599
asg57
(lp186
F1
asS'U'
(lp187
F5.4599923560107003e-05
aF0.0072046899134341202
aF0.99274071016300602
asS'W'
(lp188
F0.00120987296333885
aF0.26498817624149501
aF0.14312497187795301
aF0.30638782927792602
aF0.28428914963928803
asg61
(lp189
F0.00200963625583769
aF0.0218260494850432
aF0.14798521467614401
aF0.20467295419529102
aF0.15649167500682401
aF0.24843503325898003
aF0.21857943712188102
asg63
(lp190
F0.058452792721208097
aF0.91753249785677582
aF0.021190743592002501
aF0.0028239658300134602
asg65
(lp191
F0.5068988961766121
aF0.4931011038233879
asg67
(lp192
F0.0056097756089756399
aF0.098606055757769706
aF0.070007199712011497
aF0.82577696892124297
asg69
(lp193
F0.0016096523150999401
aF0.052668623577307297
aF0.18596983051660798
aF0.27282107064874001
aF0.13619058283410801
aF0.35074024010813698
asg71
(lp194
F0.14530849434283699
aF0.091496458524138402
aF0.15838755864132098
aF0.16669032983118501
aF0.095999792030779393
aF0.24390090266640499
aF0.098216463963333403
asg73
(lp195
F1.3429999919419999e-06
aF0.9999986570000079
asS'C'
(lp196
F0.98921194185046701
aF0.010788058149533101
asS'B'
(lp197
F0.19948083067092701
aF0.80051916932907408
asS'F'
(lp198
F1
asS'I'
(lp199
F1
asS'H'
(lp200
F0.99988429016430791
aF0.000115709835692033
asS'K'
(lp201
F0.9325805260710841
aF0.00011709988524211201
aF0.067302374043673396
asg81
(lp202
F1
asg83
(lp203
F0.97400876757720412
aF0.025991232422795701
asS'O'
(lp204
F0.99756760972956093
aF0.00038099847600609599
aF0.0020513917944328199
asg86
(lp205
F0.90476666633335712
aF0.0027098103132780697
aF0.092523523353365306
asS'P'
(lp206
F1
asS'S'
(lp207
F0.94985001199904007
aF0.0075193984481241498
aF0.042520598352131803
aF0.00010999120070394399
asg90
(lp208
F1
asg92
(lp209
F0.37400503979840793
aF0.62599496020159207
asg94
(lp210
F0.0035529481269573498
aF0.022860666234272999
aF0.115931407401452
aF0.11500022099677303
aF0.56986317999757197
aF0.17279157724297201
asg96
(lp211
F0.030772522277086701
aF0.14988157877635699
aF0.112382691006086
aF0.13824640612331199
aF0.073792068527347904
aF0.267451009404715
aF0.22747372388509601
asS'V'
(lp212
F0.0025039799681602602
aF0.9974960200318399
asg99
(lp213
F1
asg101
(lp214
F0.57209134903811498
aF0.42790865096188502
asg103
(lp215
F1
asS'N'
(lp216
F0.99635801456794204
aF0.0036419854320582702
asg106
(lp217
F0.00020994772301696898
aF0.0159260344174301
aF0.019615115836156799
aF0.132457018202468
aF0.16151978157438801
aF0.26255462389864898
aF0.40771747834789096
asg108
(lp218
F0.0089384268368767096
aF0.093712506598838605
aF0.076302570747548398
aF0.23768616723456698
aF0.49605369454975895
aF0.087306634032410305
asg110
(lp219
F0.0015098158024720999
aF0.099707835644051404
aF0.16870141842695199
aF0.230990819120067
aF0.131793921141621
aF0.29858957207220693
aF0.068706617792629293
asg112
(lp220
F0.49164571388582001
aF0.27732550874018397
aF0.040405292597461701
aF0.184515103497573
aF0.0061083812789610795
asg114
(lp221
F1
asg116
(lp222
F0.51838966898595795
aF0.48161033101404205
asg118
(lp223
F0.7575948481030379
aF0.24240515189696199
asg120
(lp224
F0.96940083842672709
aF0.00647222841715371
aF0.00135098505810526
aF0.020860869278785801
aF4.2999524425259796e-05
aF0.001872079294803
asg122
(lp225
F0.37305077968812506
aF0.62694922031187494
asg124
(lp226
F0.47810306557082
aF0.52189693442918006
asg126
(lp227
F1
asg128
(lp228
F0.00185197333158403
aF0.00251196382772088
aF0.88449246330852793
aF0.111143599532167
asg130
(lp229
F0.0125671975149542
aF0.0089280090539809592
aF0.12489014949666198
aF0.12798345968848898
aF0.24126719741497601
aF0.12218475280012599
aF0.287277937020045
aF0.074901297010766602
asg132
(lp230
F1
asg134
(lp231
F0.20570581230133303
aF0.27450372611620999
aF0.077504017086240107
aF0.36498240681209793
aF0.077304037684118504
asg136
(lp232
F0.0033362057963807002
aF0.0006297992064530001
aF0.99603399499716594
asg138
(lp233
F1
asg140
(lp234
F0.51442271162175002
aF0.112234410554394
aF0.171550886397901
aF0.17378837625021498
aF0.028003615175739901
asg142
(lp235
F0.60107979784040388
aF0.398920202159596
asg144
(lp236
F0.042954845418549797
aF0.9570451545814499
asg146
(lp237
F1
asg148
(lp238
F0.043450743830478991
aF0.83788107512223797
aF0.095010483865806503
aF0.0236576971814761
asg150
(lp239
F0.014094362255098001
aF0.24100359856057602
aF0.221011595361855
aF0.52389044382247096
asg152
(lp240
F0.00139597347650395
aF0.016012695758780601
aF0.33502723448254501
aF0.22868665495355603
aF0.26977667424318896
aF0.149100767085425
asg154
(lp241
F0.69149425517234508
aF0.30850574482765503
asg156
(lp242
F0.0097073790076679291
aF0.0066082157817389294
aF0.0034090795485219
aF0.14537074989752802
aF0.076859248003039199
aF0.24214462095234301
aF0.085916802463334899
aF0.32572205504513801
aF0.046317494276545301
aF0.057944355024143503
ast.