(dp1
(I33
I150
I3666
tp2
(dp3
S'basic_analysis'
p4
(ccollections
Counter
p5
((dp6
I0
F0.23877885157995693
sI2
F0.18396432918574079
sS'PTR_precursor'
p7
F0.43373019867670881
sI4
F0.033676730715212988
sI5
F0.081939625830973584
sI6
F0.068418828400001006
sI7
F0.072844782865052679
sI8
F0.057527285794179199
sI9
F0.17596268938099902
sI10
F0.086886876247883812
sS'ETnoD_precursor'
p8
F0.56626980132329119
sS'no fragmentation'
p9
F0.75645923607742893
sS'fragmentation'
p10
F0.24354076392257112
sS'anion_did_not_approach_cation'
p11
F0.0015991897602630571
sS'ETnoD'
p12
F0.56626980132329119
sS'PTR'
p13
F0.43373019867670881
sS'anion_approached_cation'
p14
F0.99840081023973692
stRp15
g5
((dp16
I0
I94358
sS'reactions'
p17
I395169
sI2
I72697
sg7
I189580
sI4
I13308
sI5
I32380
sI6
I27037
sI7
I28786
sI8
I22733
sI9
I69535
sI10
I34335
sg8
I247512
sS'total_reactions'
p18
F1622599
sS'total_frags'
p19
F395169
sS'unreacted_precursors'
p20
I2599
sg12
I247512
sg13
I189580
stRp21
tp22
sS'advanced_analysis'
p23
(g5
((dp24
I0
F0.27283504632500777
sI2
F0.14003863025487431
sg7
F0.43373019867670881
sI4
F0.025556900628013572
sI5
F0.063099983795234071
sI6
F0.066108095425719438
sI7
F0.078764139371430814
sI8
F0.065165470340817461
sI9
F0.18915248551144756
sI10
F0.099279248347454829
sg8
F0.56626980132329119
sg9
F0.69361303024033116
sg10
F0.30638696975966889
sg11
F0.0022972020212102856
sg12
F0.56626980132329119
sg13
F0.43373019867670881
sg14
F0.99770279797878969
stRp25
g5
((dp26
I0
I94358
sI2
F48431.333333360955
sg7
I189580
sI4
F8838.6666666915989
sI5
F21822.666666723453
sI6
F22863.0000148492
sI7
F27240.00000335828
sI8
F22537.000041754731
sI9
F65417.000008965617
sI10
I34335
sg8
I247512
sg18
F1128777.3334714076
sg19
F345842.66673570388
sg20
I2599
sg12
I247512
sg13
I189580
stRp27
tp28
sS'intermediate_analysis'
p29
(g5
((dp30
I0
F0.28343906952154374
sI2
F0.1190493355441809
sg7
F0.43373019867670881
sI4
F0.020645591521880183
sI5
F0.059023021651887629
sI6
F0.068677456564054495
sI7
F0.081825391103741624
sI8
F0.067698195275514864
sI9
F0.19650409727729315
sI10
F0.10313784153990339
sg8
F0.56626980132329119
sg9
F0.69815577114878957
sg10
F0.30184422885121043
sg11
F0.0023509745372904001
sg12
F0.56626980132329119
sg13
F0.43373019867670881
sg14
F0.99764902546270962
stRp31
g5
((dp32
I0
I94358
sI2
I39632
sg7
I189580
sI4
I6873
sI5
I19649
sI6
I22863
sI7
I27240
sI8
I22537
sI9
I65417
sI10
I34335
sg8
I247512
sg18
F1102900
sg19
F332904
sg20
I2599
sg12
I247512
sg13
I189580
stRp33
tp34
sS'summary'
p35
g5
((dp36
S'intensity_trimed_out'
p37
cnumpy.core.multiarray
scalar
p38
(cnumpy
dtype
p39
(S'f8'
I0
I1
tRp40
(I3
S'<'
NNNI-1
I-1
I0
tbS'\x00\xca\x02&PY\xbf@'
tRp41
sS'intensity_within_tolerance'
p42
g38
(g40
S'\t\xd7\xa3p\xc9\x9e"A'
tRp43
sS'underestimates/intensity_within_tolerance'
p44
g38
(g40
S'$\xd9p\x9b\xd5\x03\xa2?'
tRp45
sS'intensity_original'
p46
g38
(g40
S'\xa9\xb3\x93\x01\x16\x8f(A'
tRp47
sS'overestimates'
p48
F27065.69454761417
sS'intensity_after_trim'
p49
g38
(g40
S'\x15\xaeGacP(A'
tRp50
sS'L1_fit_error_and_unused_intensity/original_total_intensity'
p51
g38
(g40
S'\x0f\x9c\xc3\x9b\xfaU\xd3?'
tRp52
sS'underestimates'
p53
F21468.390334293072
sS'L1_error/intensity_within_tolerance'
p54
g38
(g40
S'\x0e\xe6\x8eH\n]\xb4?'
tRp55
sS'L1_error'
p56
F48534.084881907249
sS'overestimates/intensity_within_tolerance'
p57
g38
(g40
S'\xf6\xf2\xac\xf5>\xb6\xa6?'
tRp58
stRp59
ss(I24
I150
I2000
tp60
(dp61
g4
(g5
((dp62
I0
F0.26954950708927378
sI2
F0.25598627966956
sg7
F0.38912482474143006
sI4
F0.010538994278831678
sI5
F0.045507508215178773
sI6
F0.045690795072201931
sI7
F0.058664886165769869
sI8
F0.07267323880968278
sI9
F0.16782530144142022
sI10
F0.073563489258080983
sg8
F0.61087517525856994
sg9
F0.76619834710743806
sg10
F0.233801652892562
sg11
F0.0063596631294652222
sg12
F0.61087517525856994
sg13
F0.38912482474143006
sg14
F0.99364033687053477
stRp63
g5
((dp64
I0
I20589
sg17
I75508
sI2
I19553
sg7
I38300
sI4
I805
sI5
I3476
sI6
I3490
sI7
I4481
sI8
I5551
sI9
I12819
sI10
I5619
sg8
I60126
sg18
F326700
sg19
F76383
sg20
I2091
sg12
I60126
sg13
I38300
stRp65
tp66
sg23
(g5
((dp67
I0
F0.30671864114171765
sI2
F0.19641473815714891
sg7
F0.38912482474143006
sI4
F0.01199225344208474
sI5
F0.037317509762551528
sI6
F0.044527758469981818
sI7
F0.065547720693320807
sI8
F0.081174893191194808
sI9
F0.17423775939519032
sI10
F0.082068725746809387
sg8
F0.61087517525856994
sg9
F0.71150567724872305
sg10
F0.28849432275127695
sg11
F0.0089065767782660222
sg12
F0.61087517525856994
sg13
F0.38912482474143006
sg14
F0.99109342322173399
stRp68
g5
((dp69
I0
I20589
sI2
F13184.666666702657
sg7
I38300
sI4
I805
sI5
F2505.0000405621604
sI6
F2989.0000024969518
sI7
F4400.0000010798967
sI8
F5449.0000010833719
sI9
F11696.000004545025
sI10
F5509.0000011454667
sg8
I60126
sg18
F232679.33343523106
sg19
F67126.666717615532
sg20
I2091
sg12
I60126
sg13
I38300
stRp70
tp71
sg29
(g5
((dp72
I0
F0.31562246102432817
sI2
F0.17308724112029189
sg7
F0.38912482474143006
sI4
F0.012340379869084666
sI5
F0.038400809406282099
sI6
F0.045820366992166545
sI7
F0.067450523508040414
sI8
F0.083531341498934583
sI9
F0.17929575521591831
sI10
F0.084451121364953322
sg8
F0.61087517525856994
sg9
F0.7150053300246404
sg10
F0.28499466997535955
sg11
F0.0090526142616556195
sg12
F0.61087517525856994
sg13
F0.38912482474143006
sg14
F0.9909473857383444
stRp73
g5
((dp74
I0
I20589
sI2
I11291
sg7
I38300
sI4
I805
sI5
I2505
sI6
I2989
sI7
I4400
sI8
I5449
sI9
I11696
sI10
I5509
sg8
I60126
sg18
F228892
sg19
F65233
sg20
I2091
sg12
I60126
sg13
I38300
stRp75
tp76
sg35
g5
((dp77
g37
g38
(g40
S'\x80\x1d\x16j-\x7f\x9e@'
tRp78
sg42
g38
(g40
S'\xb8\x1e\x85\xeb/_\x00A'
tRp79
sg44
g38
(g40
S"\xc1Bd\x97'\x06\xb1?"
tRp80
sg46
g38
(g40
S"'~\x8cy\xfd\xd3\x07A"
tRp81
sg48
F3816.9849697523305
sg49
g38
(g40
S'\xecQ\xb8\x1e\xff\x96\x07A'
tRp82
sg51
g38
(g40
S'\x14\xefN\xf0\xd73\xd8?'
tRp83
sg53
F8918.8681377750399
sg54
g38
(g40
S'\x9dN\x81\x87MO\xb8?'
tRp84
sg56
F12735.85310752737
sg57
g38
(g40
S's/t\xc0\x97$\x9d?'
tRp85
stRp86
ss(I21
I150
I1750
tp87
(dp88
g4
(g5
((dp89
I0
F0.23321123321123322
sI2
F0.33654812135824796
sg7
F0.46390674499430995
sI4
F0.019505108112703048
sI5
F0.037356455077974068
sI6
F0.044048778225993415
sI7
F0.072626389082085283
sI8
F0.062611087927543621
sI9
F0.11590238172516654
sI10
F0.078190445279052875
sg8
F0.53609325500569005
sg9
F0.74843209910144592
sg10
F0.25156790089855402
sg11
F0.007321836596060026
sg12
F0.53609325500569005
sg13
F0.46390674499430995
sg14
F0.99267816340393999
stRp90
g5
((dp91
I0
I15089
sg17
I62763
sI2
I21775
sg7
I30166
sI4
I1262
sI5
I2417
sI6
I2850
sI7
I4699
sI8
I4051
sI9
I7499
sI10
I5059
sg8
I34860
sg18
F257191
sg19
F64701
sg20
I1897
sg12
I34860
sg13
I30166
stRp92
tp93
sg23
(g5
((dp94
I0
F0.27053500479045517
sI2
F0.28147187182002165
sg7
F0.46390674499430995
sI4
F0.014982911392191224
sI5
F0.028292426501836172
sI6
F0.043191651345129034
sI7
F0.084249717510104252
sI8
F0.066822451012571893
sI9
F0.12317419866703468
sI10
F0.087279766960655994
sg8
F0.53609325500569005
sg9
F0.68413103912486406
sg10
F0.31586896087513594
sg11
F0.010629098315042379
sg12
F0.53609325500569005
sg13
F0.46390674499430995
sg14
F0.98937090168495767
stRp95
g5
((dp96
I0
I15089
sI2
F15699.000124519749
sg7
I30166
sI4
F835.66690444322739
sI5
F1578.000687256231
sI6
F2409.0000022416525
sI7
F4698.9999999985739
sI8
F3727.0000017545635
sI9
F6870.0000028700879
sI10
F4868.0000012915243
sg8
I34860
sg18
F176575.33544875123
sg19
F55774.667724375606
sg20
I1897
sg12
I34860
sg13
I30166
stRp97
tp98
sg29
(g5
((dp99
I0
F0.27153140183552277
sI2
F0.28250854777757783
sg7
F0.46390674499430995
sI4
F0.014576210185351808
sI5
F0.025175454381860717
sI6
F0.043350728810509269
sI7
F0.084560014396256974
sI8
F0.067068562173834806
sI9
F0.12362785675724312
sI10
F0.087601223681842727
sg8
F0.53609325500569005
sg9
F0.68455888196360248
sg10
F0.31544111803639752
sg11
F0.010653532738412809
sg12
F0.53609325500569005
sg13
F0.46390674499430995
sg14
F0.98934646726158715
stRp100
g5
((dp101
I0
I15089
sI2
I15699
sg7
I30166
sI4
I810
sI5
I1399
sI6
I2409
sI7
I4699
sI8
I3727
sI9
I6870
sI10
I4868
sg8
I34860
sg18
F176166
sg19
F55570
sg20
I1897
sg12
I34860
sg13
I30166
stRp102
tp103
sg35
g5
((dp104
g37
g38
(g40
S'\x80\xe6\x8c(m\xd6\x96@'
tRp105
sg42
g38
(g40
S'\x12\xaeG\xe1\x0e\xca\xf8@'
tRp106
sg44
g38
(g40
S'Mp\xda\xedpV\xb2?'
tRp107
sg46
g38
(g40
S'=W[\xb1\xa8(\x02A'
tRp108
sg48
F6135.8882539686128
sg49
g38
(g40
S'p=\n\xd7\xfb\xfa\x01A'
tRp109
sg51
g38
(g40
S'u\xc36\xa4\xaa\x15\xda?'
tRp110
sg53
F7273.2412771642003
sg54
g38
(g40
S'9t\x90\x00e\xe7\xc0?'
tRp111
sg56
F13409.129531132812
sg57
g38
(g40
S'L\xf0\x8c&\xb2\xf0\xae?'
tRp112
stRp113
ss(I0
I0
I300
tp114
(dp115
g4
(g5
((dp116
I0
F0.2517847942886583
sI2
F0.13049238242437625
sg7
F0.42627255588472934
sI4
F0.021711930521822329
sI5
F0.047251048796643852
sI6
F0.082137337160521087
sI7
F0.079561345403694708
sI8
F0.082210936925001837
sI9
F0.19982336056524619
sI10
F0.10502686391403547
sg8
F0.57372744411527066
sg9
F0.75568662003488396
sg10
F0.24431337996511607
sg11
F0.022464010124624283
sg12
F0.57372744411527066
sg13
F0.42627255588472934
sg14
F0.97753598987537571
stRp117
g5
((dp118
I0
I3421
sg17
I13587
sI2
I1773
sg7
I6331
sI4
I295
sI5
I642
sI6
I1116
sI7
I1081
sI8
I1117
sI9
I2715
sI10
I1427
sg8
I8521
sg18
F55613
sg19
F13587
sg20
I1278
sg12
I8521
sg13
I6331
stRp119
tp120
sg23
(g5
((dp121
I0
F0.26589460552495525
sI2
F0.12917767749155379
sg7
F0.42627255588472934
sI4
F0.016322089206671282
sI5
F0.033421422054571652
sI6
F0.067464635434788103
sI7
F0.078967822127348763
sI8
F0.086817969708089748
sI9
F0.21102129611232201
sI10
F0.11091248233969926
sg8
F0.57372744411527066
sg9
F0.68297851351970151
sg10
F0.31702148648029854
sg11
F0.030528880578550872
sg12
F0.57372744411527066
sg13
F0.42627255588472934
sg14
F0.96947111942144915
stRp122
g5
((dp123
I0
I3421
sI2
F1662.0000011889292
sg7
I6331
sI4
F210.00000005935379
sI5
F430.0000168223001
sI6
F868.00000085277748
sI7
F1016.0000010692415
sI8
I1117
sI9
I2715
sI10
I1427
sg8
I8521
sg18
F40584.0000399852
sg19
F12866.000019992603
sg20
I1278
sg12
I8521
sg13
I6331
stRp124
tp125
sg29
(g5
((dp126
I0
F0.26589460593813152
sI2
F0.12917767759987564
sg7
F0.42627255588472934
sI4
F0.016322089227421111
sI5
F0.033421420799005133
sI6
F0.067464635473340584
sI7
F0.078967822166951654
sI8
F0.086817969842997042
sI9
F0.21102129644023007
sI10
F0.11091248251204726
sg8
F0.57372744411527066
sg9
F0.68297851369998031
sg10
F0.31702148630001969
sg11
F0.030528880607711049
sg12
F0.57372744411527066
sg13
F0.42627255588472934
sg14
F0.96947111939228892
stRp127
g5
((dp128
I0
I3421
sI2
I1662
sg7
I6331
sI4
I210
sI5
I430
sI6
I868
sI7
I1016
sI8
I1117
sI9
I2715
sI10
I1427
sg8
I8521
sg18
F40584
sg19
F12866
sg20
I1278
sg12
I8521
sg13
I6331
stRp129
tp130
sg35
g5
((dp131
g37
g38
(g40
S'\xc0\xea\xc09#gs@'
tRp132
sg42
g38
(g40
S'\x0eX9\xb4 \xe0\xd5@'
tRp133
sg44
g38
(g40
S':\x91\x87\xa1\xaf\xe3\xab?'
tRp134
sg46
g38
(g40
S'\xd5_vO\x82\x9d\xde@'
tRp135
sg48
F1104.0612979909304
sg49
g38
(g40
S'*\\\x8f\xc2\xe5O\xde@'
tRp136
sg51
g38
(g40
S'a\xdf\x9c.\xd8\x03\xd7?'
tRp137
sg53
F1220.1890265645948
sg54
g38
(g40
S'H1\xea\xef\xef\x8f\xba?'
tRp138
sg56
F2324.2503245555249
sg57
g38
(g40
S'X\xd1L>0<\xa9?'
tRp139
stRp140
ss(I47
I150
I6000
tp141
(dp142
g4
(g5
((dp143
I0
F0.25573208396586922
sI2
F0.10842537821284615
sg7
F0.48860839234259978
sI4
F0.02918389781709679
sI5
F0.056993665916348218
sI6
F0.077226090142909487
sI7
F0.087983562791184633
sI8
F0.083350782599591694
sI9
F0.19845050515625817
sI10
F0.10265403339789562
sg8
F0.51139160765740022
sg9
F0.75738910390942249
sg10
F0.24261089609057745
sg11
F0.0071901852867563157
sg12
F0.51139160765740022
sg13
F0.48860839234259978
sg14
F0.9928098147132437
stRp144
g5
((dp145
I0
I19541
sg17
I76412
sI2
I8285
sg7
I41884
sI4
I2230
sI5
I4355
sI6
I5901
sI7
I6723
sI8
I6369
sI9
I15164
sI10
I7844
sg8
I43837
sg18
F314957
sg19
F76412
sg20
I2281
sg12
I43837
sg13
I41884
stRp146
tp147
sg23
(g5
((dp148
I0
F0.26892517996067139
sI2
F0.10973897883275789
sg7
F0.48860839234259978
sI4
F0.025638790787965941
sI5
F0.042914812792378666
sI6
F0.072457452193340724
sI7
F0.076035597995976145
sI8
F0.087650809639707089
sI9
F0.20868847187572903
sI10
F0.10794990592147313
sg8
F0.51139160765740022
sg9
F0.68550501119089857
sg10
F0.31449498880910143
sg11
F0.0097759098017943108
sg12
F0.51139160765740022
sg13
F0.48860839234259978
sg14
F0.99022409019820568
stRp149
g5
((dp150
I0
I19541
sI2
F7974.0000013555
sg7
I41884
sI4
F1863.0000019370132
sI5
F3118.3333479539224
sI6
F5265.0000030385263
sI7
F5525.0000043010486
sI8
I6369
sI9
I15164
sI10
I7844
sg8
I43837
sg18
F231047.66671717202
sg19
F72663.333358586009
sg20
I2281
sg12
I43837
sg13
I41884
stRp151
tp152
sg29
(g5
((dp153
I0
F0.26950501330905979
sI2
F0.1099755885638628
sg7
F0.48860839234259978
sI4
F0.025694070917290743
sI5
F0.040851228157281365
sI6
F0.072613678679299923
sI7
F0.076199539354820919
sI8
F0.08783979477843519
sI9
F0.20913842801384694
sI10
F0.1081826582261023
sg8
F0.51139160765740022
sg9
F0.68575638719743426
sg10
F0.31424361280256574
sg11
F0.0097890273629278671
sg12
F0.51139160765740022
sg13
F0.48860839234259978
sg14
F0.99021097263707214
stRp154
g5
((dp155
I0
I19541
sI2
I7974
sg7
I41884
sI4
I1863
sI5
I2962
sI6
I5265
sI7
I5525
sI8
I6369
sI9
I15164
sI10
I7844
sg8
I43837
sg18
F230735
sg19
F72507
sg20
I2281
sg12
I43837
sg13
I41884
stRp156
tp157
sg35
g5
((dp158
g37
g38
(g40
S'\x00\xfd\xa9\xf1R\x9f\x99@'
tRp159
sg42
g38
(g40
S'\xc2\xf5(\\\xdb\xc4\xfd@'
tRp160
sg44
g38
(g40
S'6\xf2s\xba,S\xa6?'
tRp161
sg46
g38
(g40
S'\xb2rh\x91\xc8L\x04A'
tRp162
sg48
F4833.8643632446901
sg49
g38
(g40
S'\xb8\x1e\x85\xeb\x89\x19\x04A'
tRp163
sg51
g38
(g40
S'k`i@\xd9\xfa\xd4?'
tRp164
sg53
F5316.7149117537137
sg54
g38
(g40
S'x\xd1\x85\xe8\xa7O\xb5?'
tRp165
sg56
F10150.579274998405
sg57
g38
(g40
S'\xb9\xb0\x97\x16#L\xa4?'
tRp166
stRp167
ss(I37
I150
I4250
tp168
(dp169
g4
(g5
((dp170
I0
F0.25848887063233295
sI2
F0.13833277707889399
sg7
F0.46029958328640608
sI4
F0.028302225873533413
sI5
F0.071315242227413936
sI6
F0.075689969448794636
sI7
F0.07979769453929296
sI8
F0.072414058689122235
sI9
F0.19209262920079073
sI10
F0.083566532309825164
sg8
F0.53970041671359392
sg9
F0.75827521537466691
sg10
F0.24172478462533309
sg11
F0.0040914760092410499
sg12
F0.53970041671359392
sg13
F0.46029958328640608
sg14
F0.99590852399075891
stRp171
g5
((dp172
I0
I50342
sg17
I194204
sI2
I26941
sg7
I102175
sI4
I5512
sI5
I13889
sI6
I14741
sI7
I15541
sI8
I14103
sI9
I37411
sI10
I16275
sg8
I119800
sg18
F805689
sg19
F194755
sg20
I3310
sg12
I119800
sg13
I102175
stRp173
tp174
sg23
(g5
((dp175
I0
F0.27964877648582037
sI2
F0.12188735961169753
sg7
F0.46029958328640608
sI4
F0.020227533154294493
sI5
F0.051596500978971546
sI6
F0.06725413649273089
sI7
F0.085502244112216061
sI8
F0.077680833216657988
sI9
F0.20579532507107218
sI10
F0.090407290876538995
sg8
F0.53970041671359392
sg9
F0.6906961304374436
sg10
F0.3093038695625564
sg11
F0.0056550037587213241
sg12
F0.53970041671359392
sg13
F0.46029958328640608
sg14
F0.9943449962412787
stRp176
g5
((dp177
I0
I50342
sI2
F21942.000014018322
sg7
I102175
sI4
F3641.3335572205733
sI5
F9288.3333334200761
sI6
F12107.000008593748
sI7
F15392.000019408037
sI8
F13984.000055123734
sI9
F37047.000115350864
sI10
I16275
sg8
I119800
sg18
F582012.33420627075
sg19
F180018.66710313535
sg20
I3310
sg12
I119800
sg13
I102175
stRp178
tp179
sg29
(g5
((dp180
I0
F0.2808072469265267
sI2
F0.12239228898458243
sg7
F0.46029958328640608
sI4
F0.020002677435908878
sI5
F0.047976304692206428
sI6
F0.067532742809968987
sI7
F0.085856444811352323
sI8
F0.078002632811977057
sI9
F0.20664785024208482
sI10
F0.090781811285392353
sg8
F0.53970041671359392
sg9
F0.69118404484201423
sg10
F0.30881595515798577
sg11
F0.0056693906004586896
sg12
F0.53970041671359392
sg13
F0.46029958328640608
sg14
F0.99433060939954132
stRp181
g5
((dp182
I0
I50342
sI2
I21942
sg7
I102175
sI4
I3586
sI5
I8601
sI6
I12107
sI7
I15392
sI8
I13984
sI9
I37047
sI10
I16275
sg8
I119800
sg18
F580527
sg19
F179276
sg20
I3310
sg12
I119800
sg13
I102175
stRp183
tp184
sg35
g5
((dp185
g37
g38
(g40
S'\x00\n\xd7\xa3@\xc0\xb0@'
tRp186
sg42
g38
(g40
S']\x8f\xc2\xf5\xaa\xc7\x12A'
tRp187
sg44
g38
(g40
S'\x8d\xa8\xf7\xa4B"\xa8?'
tRp188
sg46
g38
(g40
S'233s\xe6J\x1aA'
tRp189
sg48
F15586.197506750395
sg49
g38
(g40
S'\n\xd7\xa3p\xe5\x07\x1aA'
tRp190
sg51
g38
(g40
S'~\x8e k\xd8\xc1\xd6?'
tRp191
sg53
F14503.429357597042
sg54
g38
(g40
S'\\M\xca\xe8\xe1\x08\xb9?'
tRp192
sg56
F30089.626864347432
sg57
g38
(g40
S'.\xf2\x9c,\x81\xef\xa9?'
tRp193
stRp194
ss(I11
I100
I300
tp195
(dp196
g4
(g5
((dp197
I0
F0.087285682476063234
sI2
F0.028056112224448898
sg7
F0.48441135411819447
sI6
F0.014696058784235137
sI7
F0.76820307281229128
sI8
F0.016032064128256512
sI9
F0.045869516811400578
sI10
F0.039857492763304386
sg11
F0.99041521528636645
sg10
F0.30387712294471886
sg8
F0.51558864588180553
sg12
F0.51558864588180553
sg9
F0.6961228770552812
sg13
F0.48441135411819447
sg14
F0.009584784713633554
stRp198
g5
((dp199
I0
I392
sg17
I3648
sI2
I126
sg7
I1041
sI6
I66
sI7
I3450
sI8
I72
sI9
I206
sI10
I179
sg18
F14779
sg8
I1108
sg19
F4491
sg20
I1527144
sg12
I1108
sg13
I1041
stRp200
tp201
sg23
(g5
((dp202
I0
F0.087285682476063234
sI2
F0.028056112224448898
sg7
F0.48441135411819447
sI6
F0.014696058784235137
sI7
F0.76820307281229128
sI8
F0.016032064128256512
sI9
F0.045869516811400578
sI10
F0.039857492763304386
sg11
F0.99276397263168159
sg10
F0.40346779265115446
sg8
F0.51558864588180553
sg12
F0.51558864588180553
sg9
F0.59653220734884549
sg13
F0.48441135411819447
sg14
F0.0072360273683184095
stRp203
g5
((dp204
I0
I392
sg18
F11131
sI2
I126
sg7
I1041
sI6
I66
sI7
I3450
sI8
I72
sI9
I206
sI10
I179
sg8
I1108
sg19
F4491
sg20
I1527144
sg12
I1108
sg13
I1041
stRp205
tp206
sg29
(g5
((dp207
I0
F0.087285682476063234
sI2
F0.028056112224448898
sg7
F0.48441135411819447
sI6
F0.014696058784235137
sI7
F0.76820307281229128
sI8
F0.016032064128256512
sI9
F0.045869516811400578
sI10
F0.039857492763304386
sg11
F0.99276397263168159
sg10
F0.40346779265115446
sg8
F0.51558864588180553
sg12
F0.51558864588180553
sg9
F0.59653220734884549
sg13
F0.48441135411819447
sg14
F0.0072360273683184095
stRp208
g5
((dp209
I0
I392
sg18
F11131
sI2
I126
sg7
I1041
sI6
I66
sI7
I3450
sI8
I72
sI9
I206
sI10
I179
sg8
I1108
sg19
F4491
sg20
I1527144
sg12
I1108
sg13
I1041
stRp210
tp211
sg35
g5
((dp212
g37
g38
(g40
S'\x00\x87\xe0\x7f\xe3:\xd3@'
tRp213
sg42
g38
(g40
S'{\x14\xaeG\x9e\xca7A'
tRp214
sg44
g38
(g40
S'{Jp\n"(\xbb?'
tRp215
sg46
g38
(g40
S'(Y\xa3\xbe\x17\x19>A'
tRp216
sg48
F138222.82987119962
sg49
g38
(g40
S'\x0c\xd7\xa30,\xcc=A'
tRp217
sg51
g38
(g40
S'\x15\x12\xecb\xf5B\xd7?'
tRp218
sg53
F165401.51629535141
sg54
g38
(g40
S'\x8b\xbd\x1e\x98\xf2\xec\xc8?'
tRp219
sg56
F303624.34616655094
sg57
g38
(g40
S'\x9f0\xcd%\xc3\xb1\xb6?'
tRp220
stRp221
ss(I49
I150
I75
tp222
(dp223
g4
(g5
((dp224
I0
F0.15641025641025641
sI2
F0.036587091069849691
sg7
F0.52168915754969991
sI7
F0.62061892130857643
sI9
F0.098143236074270557
sI10
F0.088240495137046862
sg11
F0.99073324203044144
sg10
F0.32324814368108468
sg8
F0.47831084245030009
sg12
F0.47831084245030009
sg9
F0.67675185631891532
sg13
F0.52168915754969991
sg14
F0.0092667579695585589
stRp225
g5
((dp226
I0
I8845
sg17
I38352
sI2
I2069
sg7
I12255
sI7
I35096
sI9
I5550
sI10
I4990
sg18
F174943
sg8
I11236
sg19
F56550
sg20
I18703612
sg12
I11236
sg13
I12255
stRp227
tp228
sg23
(g5
((dp229
I0
F0.15641025641025641
sI2
F0.036587091069849691
sg7
F0.52168915754969991
sI7
F0.62061892130857643
sI9
F0.098143236074270557
sI10
F0.088240495137046862
sg11
F0.99275002503953913
sg10
F0.41400970781383839
sg8
F0.47831084245030009
sg12
F0.47831084245030009
sg9
F0.58599029218616161
sg13
F0.52168915754969991
sg14
F0.0072499749604608699
stRp230
g5
((dp231
I0
I8845
sg18
F136591
sI2
I2069
sg7
I12255
sI7
I35096
sI9
I5550
sI10
I4990
sg8
I11236
sg19
F56550
sg20
I18703612
sg12
I11236
sg13
I12255
stRp232
tp233
sg29
(g5
((dp234
I0
F0.15641025641025641
sI2
F0.036587091069849691
sg7
F0.52168915754969991
sI7
F0.62061892130857643
sI9
F0.098143236074270557
sI10
F0.088240495137046862
sg11
F0.99275002503953913
sg10
F0.41400970781383839
sg8
F0.47831084245030009
sg12
F0.47831084245030009
sg9
F0.58599029218616161
sg13
F0.52168915754969991
sg14
F0.0072499749604608699
stRp235
g5
((dp236
I0
I8845
sg18
F136591
sI2
I2069
sg7
I12255
sI7
I35096
sI9
I5550
sI10
I4990
sg8
I11236
sg19
F56550
sg20
I18703612
sg12
I11236
sg13
I12255
stRp237
tp238
sg35
g5
((dp239
g37
g38
(g40
S'\x00\xf2\x9dXM\x96\tA'
tRp240
sg42
g38
(g40
S'\x00\x00\x00\x90\x1a\xe3qA'
tRp241
sg44
g38
(g40
S'\x80\xeea\x01\x96(\xb6?'
tRp242
sg46
g38
(g40
S'\xe4;\xb1Jz\x0ftA'
tRp243
sg48
F1632763.6416418415
sg49
g38
(g40
S'\x00\x00\x00\xb0M\xdcsA'
tRp244
sg51
g38
(g40
S'\xa65\xf6\xd0I\xd7\xd0?'
tRp245
sg53
F1623459.980662531
sg54
g38
(g40
S'\xc4%0\x0f\xd78\xc6?'
tRp246
sg56
F3256223.622304372
sg57
g38
(g40
S'\n]\xfe\x1c\x18I\xb6?'
tRp247
stRp248
ss(I2
I20
I300
tp249
(dp250
g4
(g5
((dp251
I0
F0.21411239070985633
sI2
F0.14166313600123254
sg7
F0.47217613559930049
sI4
F0.034587682471209032
sI5
F0.09505835227053884
sI6
F0.086738820629357158
sI7
F0.095250934021492123
sI8
F0.071139698802141507
sI9
F0.16527365866810462
sI10
F0.096175326426067867
sg8
F0.52782386440069951
sg9
F0.74075886170743876
sg10
F0.25924113829256118
sg11
F0.023888656055983861
sg12
F0.52782386440069951
sg13
F0.47217613559930049
sg14
F0.97611134394401611
stRp252
g5
((dp253
I0
I5559
sg17
I25923
sI2
I3678
sg7
I10530
sI4
I898
sI5
I2468
sI6
I2252
sI7
I2473
sI8
I1847
sI9
I4291
sI10
I2497
sg8
I11771
sg18
F100150
sg19
F25963
sg20
I2451
sg12
I11771
sg13
I10530
stRp254
tp255
sg23
(g5
((dp256
I0
F0.23343078469744255
sI2
F0.14121743647257573
sg7
F0.47217613559930049
sI4
F0.023781190163716444
sI5
F0.067690573382582706
sI6
F0.08163148873771707
sI7
F0.092045382349123323
sI8
F0.07617259291964322
sI9
F0.17917775951797715
sI10
F0.10485279175922181
sg8
F0.52782386440069951
sg9
F0.65945304054121578
sg10
F0.34054695945878416
sg11
F0.03386262772403504
sg12
F0.52782386440069951
sg13
F0.47217613559930049
sg14
F0.96613737227596497
stRp257
g5
((dp258
I0
I5559
sI2
F3363.0000017716134
sg7
I10530
sI4
F566.33334070074807
sI5
F1612.0063080861496
sI6
F1944.0000018898143
sI7
F2192.0000018077412
sI8
F1814.0000025666532
sI9
F4267.0000293725079
sI10
I2497
sg8
I11771
sg18
F69929.679372390456
sg19
F23814.339686195228
sg20
I2451
sg12
I11771
sg13
I10530
stRp259
tp260
sg29
(g5
((dp261
I0
F0.23457675753228122
sI2
F0.1419107097645371
sg7
F0.47217613559930049
sI4
F0.01949531606042704
sI5
F0.067516246096717025
sI6
F0.082032239007511179
sI7
F0.092497257152502316
sI8
F0.076546544012152926
sI9
F0.18005738880918221
sI10
F0.105367541564689
sg8
F0.52782386440069951
sg9
F0.65998536522375417
sg10
F0.34001463477624577
sg11
F0.033971835671120477
sg12
F0.52782386440069951
sg13
F0.47217613559930049
sg14
F0.9660281643288795
stRp262
g5
((dp263
I0
I5559
sI2
I3363
sg7
I10530
sI4
I462
sI5
I1600
sI6
I1944
sI7
I2192
sI8
I1814
sI9
I4267
sI10
I2497
sg8
I11771
sg18
F69697
sg19
F23698
sg20
I2451
sg12
I11771
sg13
I10530
stRp264
tp265
sg35
g5
((dp266
g37
g38
(g40
S'\x00\xd5\th"j\x81@'
tRp267
sg42
g38
(g40
S"'\\\x8f\xc2\xb5\x96\xe3@"
tRp268
sg44
g38
(g40
S"\xde]sq\x95'\xa9?"
tRp269
sg46
g38
(g40
S'\xd9\x12\xf2A\xc7\x9e\xeb@'
tRp270
sg48
F1394.2142265797313
sg49
g38
(g40
S'\x85\xebQ\xb8\x1eY\xeb@'
tRp271
sg51
g38
(g40
S'\xec\xc2\x0f\xc4\xe8j\xd6?'
tRp272
sg53
F1970.9866387324348
sg54
g38
(g40
S'\x98\xf0<0_y\xb5?'
tRp273
sg56
F3365.2008653121661
sg57
g38
(g40
S'Q\x83\x06\xef(\xcb\xa1?'
tRp274
stRp275
ss(I43
I150
I5250
tp276
(dp277
g4
(g5
((dp278
I0
F0.2785500554505444
sI2
F0.12164942701104128
sg7
F0.4461378028674462
sI4
F0.031401050421633388
sI5
F0.070865098241624874
sI6
F0.070335004987061536
sI7
F0.075245342503016649
sI8
F0.063548416346401987
sI9
F0.18298679649301464
sI10
F0.10541880854566126
sg8
F0.5538621971325538
sg9
F0.76171156946498908
sg10
F0.23828843053501089
sg11
F0.0047276552947092603
sg12
F0.5538621971325538
sg13
F0.4461378028674462
sg14
F0.99527234470529069
stRp279
g5
((dp280
I0
I39936
sg17
I143277
sI2
I17441
sg7
I76580
sI4
I4502
sI5
I10160
sI6
I10084
sI7
I10788
sI8
I9111
sI9
I26235
sI10
I15114
sg8
I95071
sg18
F601670
sg19
F143371
sg20
I2858
sg12
I95071
sg13
I76580
stRp281
tp282
sg23
(g5
((dp283
I0
F0.29259500760791435
sI2
F0.121020741594904
sg7
F0.4461378028674462
sI4
F0.02218493808821953
sI5
F0.050546197853927465
sI6
F0.064913656071765885
sI7
F0.079039336490216064
sI8
F0.066752632069203413
sI9
F0.19221329188185177
sI10
F0.11073419834199763
sg8
F0.5538621971325538
sg9
F0.69302722042711418
sg10
F0.30697277957288577
sg11
F0.0063867777158034145
sg12
F0.5538621971325538
sg13
F0.4461378028674462
sg14
F0.99361322228419657
stRp284
g5
((dp285
I0
I39936
sI2
F16518.000002278088
sg7
I76580
sI4
F3028.0000152236726
sI5
F6899.0000000254495
sI6
F8860.0000050442468
sI7
F10787.999999996886
sI8
I9111
sI9
I26235
sI10
I15114
sg8
I95071
sg18
F444629.00004513661
sg19
F136489.00002256833
sg20
I2858
sg12
I95071
sg13
I76580
stRp286
tp287
sg29
(g5
((dp288
I0
F0.29603712324502229
sI2
F0.12244444114987175
sg7
F0.4461378028674462
sI4
F0.021148685712591361
sI5
F0.040673970734310831
sI6
F0.065677306489155096
sI7
F0.079969162799661972
sI8
F0.06753791641339639
sI9
F0.19447450742020134
sI10
F0.11203688603578894
sg8
F0.5538621971325538
sg9
F0.69441505929256664
sg10
F0.30558494070743336
sg11
F0.006432402383004774
sg12
F0.5538621971325538
sg13
F0.4461378028674462
sg14
F0.9935675976169952
stRp289
g5
((dp290
I0
I39936
sI2
I16518
sg7
I76580
sI4
I2853
sI5
I5487
sI6
I8860
sI7
I10788
sI8
I9111
sI9
I26235
sI10
I15114
sg8
I95071
sg18
F441455
sg19
F134902
sg20
I2858
sg12
I95071
sg13
I76580
stRp291
tp292
sg35
g5
((dp293
g37
g38
(g40
S'\x00E\x94\xf6\xa6\xad\xa7@'
tRp294
sg42
g38
(g40
S'\xfd\xff\xff\xffy/\x0cA'
tRp295
sg44
g38
(g40
S',<\x14\xeaJ\xfa\xa0?'
tRp296
sg46
g38
(g40
S'.\x99*X\x9b\x8a\x12A'
tRp297
sg48
F8607.9301846491653
sg49
g38
(g40
S'\xa4p=\n@[\x12A'
tRp298
sg51
g38
(g40
S'J\x89c\xd9@\xc8\xd2?'
tRp299
sg53
F7656.3898037815416
sg54
g38
(g40
S'\xfa\x18\xf8Y_\x08\xb2?'
tRp300
sg56
F16264.319988430711
sg57
g38
(g40
S'\xc7\xf5\xdb\xc9s\x16\xa3?'
tRp301
stRp302
ss(I31
I150
I3000
tp303
(dp304
g4
(g5
((dp305
I0
F0.20646418931025912
sI2
F0.22436808915246204
sg7
F0.45350739129092987
sI4
F0.036449392221123998
sI5
F0.089278179495627344
sI6
F0.073538931950730316
sI7
F0.085817336870762456
sI8
F0.053097562526371767
sI9
F0.16233591704381903
sI10
F0.068650401428843918
sg8
F0.54649260870907013
sg9
F0.74260005088278658
sg10
F0.25739994911721342
sg11
F0.0040677707423524166
sg12
F0.54649260870907013
sg13
F0.45350739129092987
sg14
F0.99593222925764757
stRp306
g5
((dp307
I0
I142879
sg17
I688819
sI2
I155269
sg7
I279205
sI4
I25224
sI5
I61783
sI6
I50891
sI7
I59388
sI8
I36745
sI9
I112341
sI10
I47508
sg8
I336452
sg18
F2688532
sg19
F692028
sg20
I10981
sg12
I336452
sg13
I279205
stRp308
tp309
sg23
(g5
((dp310
I0
F0.24391683179637211
sI2
F0.17665599877302079
sg7
F0.45350739129092987
sI4
F0.029256112179679425
sI5
F0.070258600061648482
sI6
F0.072141024817066191
sI7
F0.091409701659174419
sI8
F0.06177346277576632
sI9
F0.17348467087274891
sI10
F0.081103597064523442
sg8
F0.54649260870907013
sg9
F0.6722410733592028
sg10
F0.3277589266407972
sg11
F0.0061067414570889645
sg12
F0.54649260870907013
sg13
F0.45350739129092987
sg14
F0.993893258542911
stRp311
g5
((dp312
I0
I142879
sI2
F103479.66666671772
sg7
I279205
sI4
F17137.333333396426
sI5
F41155.333333407048
sI6
F42258.000027823044
sI7
F53545.000019779029
sI8
F36185.000120479555
sI9
F101622.00003614578
sI10
I47508
sg8
I336452
sg18
F1787195.6670754973
sg19
F585769.33353774855
sg20
I10981
sg12
I336452
sg13
I279205
stRp313
tp314
sg29
(g5
((dp315
I0
F0.2509255226480836
sI2
F0.16166966393166235
sg7
F0.45350739129092987
sI4
F0.027395119141283578
sI5
F0.066307463189839266
sI6
F0.074213920422614363
sI7
F0.094036262223221312
sI8
F0.063548457345172532
sI9
F0.17846956839384062
sI10
F0.083434022704282337
sg8
F0.54649260870907013
sg9
F0.67545354074984343
sg10
F0.32454645925015663
sg11
F0.0062199298310802774
sg12
F0.54649260870907013
sg13
F0.45350739129092987
sg14
F0.99378007016891967
stRp316
g5
((dp317
I0
I142879
sI2
I92056
sg7
I279205
sI4
I15599
sI5
I37756
sI6
I42258
sI7
I53545
sI8
I36185
sI9
I101622
sI10
I47508
sg8
I336452
sg18
F1754473
sg19
F569408
sg20
I10981
sg12
I336452
sg13
I279205
stRp318
tp319
sg35
g5
((dp320
g37
g38
(g40
S'\x00\xac`TzC\xca@'
tRp321
sg42
g38
(g40
S'\xecQ\xb8\x1ev\xb1.A'
tRp322
sg44
g38
(g40
S'\x86\xedC\xb1\xee\xcd\xa4?'
tRp323
sg46
g38
(g40
S'\xf2ZBN\xce\x944A'
tRp324
sg48
F45016.700939484806
sg49
g38
(g40
S'\x9a\x99\x99YG`4A'
tRp325
sg51
g38
(g40
S'\x05\xa4!`\\Z\xd4?'
tRp326
sg53
F40867.488501193402
sg54
g38
(g40
S'\xb08x\x98L\xdc\xb5?'
tRp327
sg56
F85884.189440678223
sg57
g38
(g40
S'\xd8\x83\xac\x7f\xaa\xea\xa6?'
tRp328
stRp329
ss(I18
I150
I15
tp330
(dp331
g4
(g5
((dp332
I0
F0.42630717133760759
sI2
F0.088515933867444538
sg7
F0.365757089710671
sI4
F0.024729146198593486
sI5
F0.048458943999351772
sI6
F0.033114894680157873
sI7
F0.029947365400262667
sI8
F0.023149095353367569
sI9
F0.20739247720236467
sI10
F0.11838497196084985
sg8
F0.634242910289329
sg9
F0.75844626223863143
sg10
F0.24155373776136863
sg11
F0.55444906984733022
sg12
F0.634242910289329
sg13
F0.365757089710671
sg14
F0.44555093015266978
stRp333
g5
((dp334
I0
I631346
sg17
I479464
sI2
I131089
sg7
I983741
sI4
I36623
sI5
I71766
sI6
I49042
sI7
I44351
sI8
I34283
sI9
I307141
sI10
I175324
sg8
I1705861
sg18
F6130996
sg19
F1480965
sg20
I7629487
sg12
I1705861
sg13
I983741
stRp335
tp336
sg23
(g5
((dp337
I0
F0.45799259620926747
sI2
F0.063372426334302692
sg7
F0.365757089710671
sI4
F0.017687251492517157
sI5
F0.034682933531207841
sI6
F0.027383974362180766
sI7
F0.03217321347481919
sI8
F0.024303830152985158
sI9
F0.21521979935173374
sI10
F0.12718397509098595
sg8
F0.634242910289329
sg9
F0.74690578513498629
sg10
F0.25309421486501377
sg11
F0.58346794909371091
sg12
F0.634242910289329
sg13
F0.365757089710671
sg14
F0.41653205090628909
stRp338
g5
((dp339
I0
I631346
sI2
F87359.333333360701
sg7
I983741
sI4
F24382.000000044492
sI5
F47810.666666735211
sI6
F37749.000356690791
sI7
F44350.999999991211
sI8
F33503.000002112436
sI9
F296682.00002830132
sI10
I175324
sg8
I1705861
sg18
F5446616.000774472
sg19
F1378507.0003872362
sg20
I7629487
sg12
I1705861
sg13
I983741
stRp340
tp341
sg29
(g5
((dp342
I0
F0.46580634403707294
sI2
F0.052729007225264003
sg7
F0.365757089710671
sI4
F0.015745364963261305
sI5
F0.032182047436038377
sI6
F0.027851168267567176
sI7
F0.032722116184133933
sI8
F0.024718474409078466
sI9
F0.21889163432033601
sI10
F0.12935384315724779
sg8
F0.634242910289329
sg9
F0.74902025195320021
sg10
F0.25097974804679979
sg11
F0.5855389027736686
sg12
F0.634242910289329
sg13
F0.365757089710671
sg14
F0.4144610972263314
stRp343
g5
((dp344
I0
I631346
sI2
I71468
sg7
I983741
sI4
I21341
sI5
I43619
sI6
I37749
sI7
I44351
sI8
I33503
sI9
I296682
sI10
I175324
sg8
I1705861
sg18
F5400368
sg19
F1355383
sg20
I7629487
sg12
I1705861
sg13
I983741
stRp345
tp346
sg35
g5
((dp347
g37
g38
(g40
S'\x00s\xcd\xe4A\xa6\xfe@'
tRp348
sg42
g38
(g40
S'\x9a\x99\x99)laeA'
tRp349
sg44
g38
(g40
S'\xb2xa\x11<\xc7\xb4?'
tRp350
sg46
g38
(g40
S'\xe6\x9a\xc9\xe3\x04\xf8gA'
tRp351
sg48
F1387269.4288236429
sg49
g38
(g40
S'\x00\x00\x00`\xb8\xbagA'
tRp352
sg51
g38
(g40
S'\x9by%1\x1f\x9c\xd2?'
tRp353
sg53
F909825.58170143468
sg54
g38
(g40
S'\xa9\xf7\xc0\r\xe8:\xca?'
tRp354
sg56
F2297095.0105250776
sg57
g38
(g40
S'\xa0v \n\x94\xae\xbf?'
tRp355
stRp356
ss(I20
I150
I1500
tp357
(dp358
g4
(g5
((dp359
I2
F0.88265206336788582
sg7
F0.5
sI9
F0.088988851946019951
sI10
F0.028359084686094268
sg11
F0.04813113991745626
sg10
F0.31224427480916028
sg8
F0.5
sg12
F0.5
sg9
F0.68775572519083972
sg13
F0.5
sg14
F0.95186886008254379
stRp360
g5
((dp361
g18
F16375
sg17
I4785
sI2
I4513
sg7
I682
sI9
I455
sI10
I145
sg8
I682
sg19
F5113
sg20
I828
sg12
I682
sg13
I682
stRp362
tp363
sg23
(g5
((dp364
I2
F0.88265206336788582
sg7
F0.5
sI9
F0.088988851946019951
sI10
F0.028359084686094268
sg11
F0.066677403768722818
sg10
F0.44115616911130284
sg8
F0.5
sg12
F0.5
sg9
F0.55884383088869716
sg13
F0.5
sg14
F0.93332259623127722
stRp365
g5
((dp366
g18
F11590
sI2
I4513
sg7
I682
sI9
I455
sI10
I145
sg8
I682
sg19
F5113
sg20
I828
sg12
I682
sg13
I682
stRp367
tp368
sg29
(g5
((dp369
I2
F0.88265206336788582
sg7
F0.5
sI9
F0.088988851946019951
sI10
F0.028359084686094268
sg11
F0.066677403768722818
sg10
F0.44115616911130284
sg8
F0.5
sg12
F0.5
sg9
F0.55884383088869716
sg13
F0.5
sg14
F0.93332259623127722
stRp370
g5
((dp371
g18
F11590
sI2
I4513
sg7
I682
sI9
I455
sI10
I145
sg8
I682
sg19
F5113
sg20
I828
sg12
I682
sg13
I682
stRp372
tp373
sg35
g5
((dp374
g37
g38
(g40
S'\x00\x1e\x85\xebQ`d@'
tRp375
sg42
g38
(g40
S'=\n\xd7\xa3\xf0\x85\xb8@'
tRp376
sg44
g38
(g40
S'\x06\x14Ge\xa0\xd7\xb0?'
tRp377
sg46
g38
(g40
S'\xadG\xe1z\x84O\xd0@'
tRp378
sg48
F754.73318732287032
sg49
g38
(g40
S'q=\n\xd7\xc3&\xd0@'
tRp379
sg51
g38
(g40
S'\xec\xb2&\x8c\x915\xe6?'
tRp380
sg53
F413.02692801310803
sg54
g38
(g40
S"\x11'\x02\xa3-\xcf\xc7?"
tRp381
sg56
F1167.7601153359788
sg57
g38
(g40
S'\x17:\xbd\xe0\xba\xc6\xbe?'
tRp382
stRp383
ss(I23
I150
I200
tp384
(dp385
g4
(g5
((dp386
g10
F0.32859609353895303
sg7
F1
sI7
F1
sg11
F0.99114488693950653
sg8
F0
sg12
F0
sg9
F0.67140390646104697
sg13
F1
sg14
F0.0088551130604934691
stRp387
g5
((dp388
g18
F85141
sg17
I27977
sg7
I1210
sI7
I27977
sg19
F27977
sg20
I9529756
sg12
I0
sg13
I1210
stRp389
tp390
sg23
(g5
((dp391
g10
F0.48941641592610735
sg7
F1
sI7
F1
sg11
F0.99403729247766748
sg8
F0
sg12
F0
sg9
F0.51058358407389259
sg13
F1
sg14
F0.0059627075223325221
stRp392
g5
((dp393
g18
F57164
sg7
I1210
sg20
I9529756
sI7
I27977
sg12
I0
sg19
F27977
sg13
I1210
stRp394
tp395
sg29
(g5
((dp396
g10
F0.48941641592610735
sg7
F1
sI7
F1
sg11
F0.99403729247766748
sg8
F0
sg12
F0
sg9
F0.51058358407389259
sg13
F1
sg14
F0.0059627075223325221
stRp397
g5
((dp398
g18
F57164
sg7
I1210
sg20
I9529756
sI7
I27977
sg12
I0
sg19
F27977
sg13
I1210
stRp399
tp400
sg35
g5
((dp401
g37
g38
(g40
S'\x80\xc0t\x93\xbe\xea\xf9@'
tRp402
sg42
g38
(g40
S'333\xe3\x02\x9faA'
tRp403
sg44
g38
(g40
S'7+\xd02\xab\xc7\xb2?'
tRp404
sg46
g38
(g40
S'\xe7O\x8d\xd3PIdA'
tRp405
sg48
F988790.71780830447
sg49
g38
(g40
S'fffV{\x15dA'
tRp406
sg51
g38
(g40
S'N\xedP\xa8\xbbo\xd2?'
tRp407
sg53
F677732.74786705861
sg54
g38
(g40
S'\x8d\xab\xd9\xf4\xf3\x16\xc7?'
tRp408
sg56
F1666523.4656753633
sg57
g38
(g40
S'\xe1+\xe3\xb6<f\xbb?'
tRp409
stRp410
ss(I40
I150
I50
tp411
(dp412
g4
(g5
((dp413
I0
F0.25856653900075971
sI2
F0.061342293443611612
sg7
F0.46779847350256365
sI4
F0.0080593998919147539
sI5
F0.019784299443126013
sI7
F0.39334414185796973
sI9
F0.16628680185154726
sI10
F0.0926165245110709
sg11
F0.97592691003106169
sg10
F0.29787437562262759
sg8
F0.53220152649743635
sg12
F0.53220152649743635
sg9
F0.70212562437737236
sg13
F0.46779847350256365
sg14
F0.02407308996893831
stRp414
g5
((dp415
I0
I33013
sg17
I62300
sI2
I7832
sg7
I51913
sI4
I1029
sI5
I2526
sI7
I50221
sI9
I21231
sI10
I11825
sg18
F428627
sg8
I59060
sg19
F127677
sg20
I17376607
sg12
I59060
sg13
I51913
stRp416
tp417
sg23
(g5
((dp418
I0
F0.26390976241477382
sI2
F0.04194512838583081
sg7
F0.46779847350256365
sI4
F0.0082259457039591151
sI5
F0.020193137850535201
sI7
F0.40147251622792102
sI9
F0.16972308381025847
sI10
F0.094530425606721605
sg11
F0.97963909092487167
sg10
F0.34636460043696493
sg8
F0.53220152649743635
sg12
F0.53220152649743635
sg9
F0.65363539956303507
sg13
F0.46779847350256365
sg14
F0.020360909075128331
stRp419
g5
((dp420
I0
I33013
sg18
F361157.00000008423
sI2
F5247.0000000421142
sg7
I51913
sI4
I1029
sI5
I2526
sI7
I50221
sI9
I21231
sI10
I11825
sg8
I59060
sg19
F125092.00000004211
sg20
I17376607
sg12
I59060
sg13
I51913
stRp421
tp422
sg29
(g5
((dp423
I0
F0.26538848024438283
sI2
F0.036577032838940475
sg7
F0.46779847350256365
sI4
F0.0082720366574219224
sI5
F0.02030628240684915
sI7
F0.40372201455042406
sI9
F0.17067406246231762
sI10
F0.095060090839663977
sg11
F0.97971608621155282
sg10
F0.34576929812126317
sg8
F0.53220152649743635
sg12
F0.53220152649743635
sg9
F0.65423070187873678
sg13
F0.46779847350256365
sg14
F0.020283913788447183
stRp424
g5
((dp425
I0
I33013
sg18
F359763
sI2
I4550
sg7
I51913
sI4
I1029
sI5
I2526
sI7
I50221
sI9
I21231
sI10
I11825
sg8
I59060
sg19
F124395
sg20
I17376607
sg12
I59060
sg13
I51913
stRp426
tp427
sg35
g5
((dp428
g37
g38
(g40
S'\x008\xd5a}\x1e\x08A'
tRp429
sg42
g38
(g40
S'333\xe3\xf2\xc0pA'
tRp430
sg44
g38
(g40
S'\xae\x08<\xfaP5\xb5?'
tRp431
sg46
g38
(g40
S'\nD]\x14\x1b\xdbrA'
tRp432
sg48
F1485907.674869901
sg49
g38
(g40
S'\x9a\x99\x99\x19\xde\xaarA'
tRp433
sg51
g38
(g40
S"\xcf's\x1e\xe7\xa7\xd0?"
tRp434
sg53
F1455378.7247302867
sg54
g38
(g40
S'\xd9\x089\xbeBn\xc5?'
tRp435
sg56
F2941286.3996001878
sg57
g38
(g40
S'\x04\t6\x824\xa7\xb5?'
tRp436
stRp437
ss(I16
I150
I1000
tp438
(dp439
g4
(g5
((dp440
I2
F0.027397260273972601
sg7
F1
sI6
F0.62761676354619733
sI7
F0.21621072314133571
sI9
F0.02967359050445104
sI10
F0.09910166253404333
sg11
F0.95692836943874937
sg10
F0.33853965982275552
sg8
F0
sg12
F0
sg9
F0.66146034017724453
sg13
F1
sg14
F0.043071630561250629
stRp441
g5
((dp442
g18
F72668
sg17
I22591
sI2
I674
sg7
I875
sI6
I15440
sI7
I5319
sI9
I730
sI10
I2438
sg19
F24601
sg20
I1614475
sg12
I0
sg13
I875
stRp443
tp444
sg23
(g5
((dp445
I2
F0.027397260273972601
sg7
F1
sI6
F0.62761676354619733
sI7
F0.21621072314133571
sI9
F0.02967359050445104
sI10
F0.09910166253404333
sg11
F0.96991562895001182
sg10
F0.49126345428040818
sg8
F0
sg12
F0
sg9
F0.50873654571959182
sg13
F1
sg14
F0.030084371049988179
stRp446
g5
((dp447
g18
F50077
sI2
I674
sg7
I875
sI6
I15440
sI7
I5319
sI9
I730
sI10
I2438
sg19
F24601
sg20
I1614475
sg12
I0
sg13
I875
stRp448
tp449
sg29
(g5
((dp450
I2
F0.027397260273972601
sg7
F1
sI6
F0.62761676354619733
sI7
F0.21621072314133571
sI9
F0.02967359050445104
sI10
F0.09910166253404333
sg11
F0.96991562895001182
sg10
F0.49126345428040818
sg8
F0
sg12
F0
sg9
F0.50873654571959182
sg13
F1
sg14
F0.030084371049988179
stRp451
g5
((dp452
g18
F50077
sI2
I674
sg7
I875
sI6
I15440
sI7
I5319
sI9
I730
sI10
I2438
sg19
F24601
sg20
I1614475
sg12
I0
sg13
I875
stRp453
tp454
sg35
g5
((dp455
g37
g38
(g40
S'\x00=,\xd4\xa4>\xe6@'
tRp456
sg42
g38
(g40
S'\x9b\x99\x99\x19*\xce9A'
tRp457
sg44
g38
(g40
S'O{t\xc0\xa1^\xce?'
tRp458
sg46
g38
(g40
S'zX\xa8\x89\xdafQA'
tRp459
sg48
F348429.723110458
sg49
g38
(g40
S'\x00\x00\x00@]:QA'
tRp460
sg51
g38
(g40
S'\xde\xbdW\x0cEe\xe9?'
tRp461
sg53
F401253.87903570221
sg54
g38
(g40
S'e\x1e\x8a&\xe0^\xdc?'
tRp462
sg56
F749683.60214616044
sg57
g38
(g40
S'v\xc1\x9f\x8c\x1e_\xca?'
tRp463
stRp464
ss(I36
I150
I4000
tp465
(dp466
g4
(g5
((dp467
I0
F0.24069202803800616
sI2
F0.18478266443100999
sg7
F0.45096736613568644
sI4
F0.032496500376882488
sI5
F0.075945667389665725
sI6
F0.071012865281174842
sI7
F0.077442942042139057
sI8
F0.053932653406556216
sI9
F0.18264699699006773
sI10
F0.081047682044497776
sg8
F0.54903263386431356
sg9
F0.75394078181628932
sg10
F0.24605921818371074
sg11
F0.0022659252055855054
sg12
F0.54903263386431356
sg13
F0.45096736613568644
sg14
F0.99773407479441445
stRp468
g5
((dp469
I0
I93880
sg17
I389613
sI2
I72073
sg7
I187358
sI4
I12675
sI5
I29622
sI6
I27698
sI7
I30206
sI8
I21036
sI9
I71240
sI10
I31612
sg8
I228100
sg18
F1585155
sg19
F390042
sg20
I3600
sg12
I228100
sg13
I187358
stRp470
tp471
sg23
(g5
((dp472
I0
F0.27335992776767432
sI2
F0.13981112113071317
sg7
F0.45096736613568644
sI4
F0.024507662889386356
sI5
F0.059689019592148791
sI6
F0.071225577293226316
sI7
F0.082683516297663046
sI8
F0.06125265701449506
sI9
F0.19542264800412928
sI10
F0.092047870010563693
sg8
F0.54903263386431356
sg9
F0.68844743530514485
sg10
F0.31155256469485509
sg11
F0.0032552142200771637
sg12
F0.54903263386431356
sg13
F0.45096736613568644
sg14
F0.99674478577992287
stRp473
g5
((dp474
I0
I93880
sI2
F48015.33333337192
sg7
I187358
sI4
F8416.6666667069039
sI5
F20499.000000005024
sI6
F24461.000011570846
sI7
F28396.00000414738
sI8
I21036
sI9
F67114.000008881936
sI10
I31612
sg8
I228100
sg18
F1102318.000049368
sg19
F343430.00002468401
sg20
I3600
sg12
I228100
sg13
I187358
stRp475
tp476
sg29
(g5
((dp477
I0
F0.27970027856813001
sI2
F0.12335056383977119
sg7
F0.45096736613568644
sI4
F0.021585305903558821
sI5
F0.061073455585514455
sI6
F0.072877593886397835
sI7
F0.08460129005347912
sI8
F0.062673360246689208
sI9
F0.19995530992566551
sI10
F0.094182841990793839
sg8
F0.54903263386431356
sg9
F0.69114734970756797
sg10
F0.30885265029243208
sg11
F0.0033016981734271993
sg12
F0.54903263386431356
sg13
F0.45096736613568644
sg14
F0.99669830182657282
stRp478
g5
((dp479
I0
I93880
sI2
I41402
sg7
I187358
sI4
I7245
sI5
I20499
sI6
I24461
sI7
I28396
sI8
I21036
sI9
I67114
sI10
I31612
sg8
I228100
sg18
F1086748
sg19
F335645
sg20
I3600
sg12
I228100
sg13
I187358
stRp480
tp481
sg35
g5
((dp482
g37
g38
(g40
S'\x00\x18/\xddD\x8d\xbe@'
tRp483
sg42
g38
(g40
S'\xa4p=\n\x9f\x1d"A'
tRp484
sg44
g38
(g40
S'\x93\xe2W\xe1P\xb3\xa2?'
tRp485
sg46
g38
(g40
S"P\xe3\xa5\xdb\xc2\xf9'A"
tRp486
sg48
F28882.7143901497
sg49
g38
(g40
S" \x85\xebQ\xa8\xbc'A"
tRp487
sg51
g38
(g40
S"{\x7f'\xe4\xed\xc2\xd3?"
tRp488
sg53
F21681.404420598767
sg54
g38
(g40
S'\x9c\x9e\xf3\xcfY\xce\xb5?'
tRp489
sg56
F50564.118810748449
sg57
g38
(g40
S'\xa8Z\x8f\xbeb\xe9\xa8?'
tRp490
stRp491
ss(I22
I150
I20
tp492
(dp493
g4
(g5
((dp494
I0
F0.41255487048430561
sI2
F0.08080044936586199
sg7
F0.39971358306186844
sI4
F0.023619081405954534
sI5
F0.040713379255370982
sI6
F0.033761566736414728
sI7
F0.066899014220064446
sI8
F0.018483784396361714
sI9
F0.21598358456870623
sI10
F0.10718426956695978
sg8
F0.60028641693813156
sg9
F0.75150580159089708
sg10
F0.24849419840910297
sg11
F0.78746016199079616
sg12
F0.60028641693813156
sg13
F0.39971358306186844
sg14
F0.21253983800920384
stRp495
g5
((dp496
I0
I376781
sg17
I280368
sI2
I73794
sg7
I626888
sI4
I21571
sI5
I37183
sI6
I30834
sI7
I61098
sI8
I16881
sI9
I197255
sI10
I97890
sg8
I941455
sg18
F3675285
sg19
F913287
sg20
I13616932
sg12
I941455
sg13
I626888
stRp497
tp498
sg23
(g5
((dp499
I0
F0.44005213600977466
sI2
F0.05754135329791029
sg7
F0.39971358306186844
sI4
F0.016921293883122003
sI5
F0.028917445952898139
sI6
F0.028691257715272044
sI7
F0.0713579119061825
sI8
F0.018975285524096601
sI9
F0.22321508898488215
sI10
F0.11432822672586156
sg8
F0.60028641693813156
sg9
F0.73901976383931978
sg10
F0.26098023616068022
sg11
F0.80584467255550418
sg12
F0.60028641693813156
sg13
F0.39971358306186844
sg14
F0.19415532744449582
stRp500
g5
((dp501
I0
I376781
sI2
F49268.000000023538
sg7
I626888
sI4
F14488.333333382508
sI5
F24759.666666717181
sI6
F24566.000000004071
sI7
F61097.999999995758
sI8
F16247.000002962905
sI9
F191121.00035561409
sI10
I97890
sg8
I941455
sg18
F3280781.0007174006
sg19
F856219.00035870005
sg20
I13616932
sg12
I941455
sg13
I626888
stRp502
tp503
sg29
(g5
((dp504
I0
F0.44800959797196471
sI2
F0.045780614046665266
sg7
F0.39971358306186844
sI4
F0.015270906088029765
sI5
F0.026114997306812871
sI6
F0.029210081675507218
sI7
F0.072648276895308145
sI8
F0.019318415573636966
sI9
F0.22725148660362349
sI10
F0.11639562383845158
sg8
F0.60028641693813156
sg9
F0.74125644350711384
sg10
F0.25874355649288616
sg11
F0.80729781422595448
sg12
F0.60028641693813156
sg13
F0.39971358306186844
sg14
F0.19270218577404552
stRp505
g5
((dp506
I0
I376781
sI2
I38502
sg7
I626888
sI4
I12843
sI5
I21963
sI6
I24566
sI7
I61098
sI8
I16247
sI9
I191121
sI10
I97890
sg8
I941455
sg18
F3250365
sg19
F841011
sg20
I13616932
sg12
I941455
sg13
I626888
stRp507
tp508
sg35
g5
((dp509
g37
g38
(g40
S'\x00\x88\xea-<j\x05A'
tRp510
sg42
g38
(g40
S'333\x83[\x1anA'
tRp511
sg44
g38
(g40
S'\x0e3\xd8Z8\x9b\xb6?'
tRp512
sg46
g38
(g40
S'v;\xc2\xe6v\xbbpA'
tRp513
sg48
F1658128.3048378534
sg49
g38
(g40
S'fffn\xa2\x90pA'
tRp514
sg51
g38
(g40
S'\xfa\xff\xbd\xb7\xaf\x8f\xd1?'
tRp515
sg53
F1393699.5978448463
sg54
g38
(g40
S'f\x1c%\xa6:\xc0\xc8?'
tRp516
sg56
F3051827.9026826993
sg57
g38
(g40
S'\xc0\x05r\xf1<\xe5\xba?'
tRp517
stRp518
ss(I6
I40
I300
tp519
(dp520
g4
(g5
((dp521
I0
F0.19239858072980962
sI2
F0.15544253437074554
sg7
F0.48422636691139587
sI4
F0.045844120115968202
sI5
F0.10330622235703252
sI6
F0.089818923132270051
sI7
F0.072832826619075502
sI8
F0.051952907317141993
sI9
F0.19361187333789492
sI10
F0.094792012020061656
sg8
F0.51577363308860413
sg9
F0.72441900022355488
sg10
F0.27558099977644507
sg11
F0.39833447370421704
sg12
F0.51577363308860413
sg13
F0.48422636691139587
sg14
F0.60166552629578296
stRp522
g5
((dp523
I0
I27275
sg17
I121244
sI2
I22036
sg7
I53093
sI4
I6499
sI5
I14645
sI6
I12733
sI7
I10325
sI8
I7365
sI9
I27447
sI10
I13438
sg8
I56552
sg18
F514415
sg19
F141763
sg20
I340570
sg12
I56552
sg13
I53093
stRp524
tp525
sg23
(g5
((dp526
I0
F0.22201330041907957
sI2
F0.11930789912677521
sg7
F0.48422636691139587
sI4
F0.035117850869821457
sI5
F0.079260037054231305
sI6
F0.082114396912947862
sI7
F0.084043531689326018
sI8
F0.059184553926196773
sI9
F0.20957567176031697
sI10
F0.10938275824130492
sg8
F0.51577363308860413
sg9
F0.6542770387447232
sg10
F0.3457229612552768
sg11
F0.4893802600928322
sg12
F0.51577363308860413
sg13
F0.48422636691139587
sg14
F0.5106197399071678
stRp527
g5
((dp528
I0
I27275
sI2
F14657.333333364284
sg7
I53093
sI4
F4314.3333334819636
sI5
F9737.3333335139887
sI6
F10088.000005283369
sI7
F10324.999999997164
sI8
F7271.0000044586941
sI9
F25747.000006182527
sI10
I13438
sg8
I56552
sg18
F355351.00003256398
sg19
F122853.00001628198
sg20
I340570
sg12
I56552
sg13
I53093
stRp529
tp530
sg29
(g5
((dp531
I0
F0.22782135130845885
sI2
F0.10172818469608506
sg7
F0.48422636691139587
sI4
F0.034020764945164171
sI5
F0.077889426249363097
sI6
F0.084262577158560323
sI7
F0.086242179734549493
sI8
F0.060732870590790251
sI9
F0.21505834398309404
sI10
F0.11224430133393473
sg8
F0.51577363308860413
sg9
F0.65704537837272659
sg10
F0.34295462162727341
sg11
F0.49382519136324288
sg12
F0.51577363308860413
sg13
F0.48422636691139587
sg14
F0.50617480863675712
stRp532
g5
((dp533
I0
I27275
sI2
I12179
sg7
I53093
sI4
I4073
sI5
I9325
sI6
I10088
sI7
I10325
sI8
I7271
sI9
I25747
sI10
I13438
sg8
I56552
sg18
F349087
sg19
F119721
sg20
I340570
sg12
I56552
sg13
I53093
stRp534
tp535
sg35
g5
((dp536
g37
g38
(g40
S'\x80C=D\xa3\xb8\xbb@'
tRp537
sg42
g38
(g40
S'\x1e\x85\xeb\xd1\t\n!A'
tRp538
sg44
g38
(g40
S'\x00\x16\x87@\x19-\xb6?'
tRp539
sg46
g38
(g40
S'+\xeb\xc5\xd0v\xac%A'
tRp540
sg48
F36554.302636071574
sg49
g38
(g40
S'\xa4p=\x8a\x05u%A'
tRp541
sg51
g38
(g40
S'iH\xc3\x92vV\xd5?'
tRp542
sg53
F48366.644612120173
sg54
g38
(g40
S'9]L\xa2\xdaw\xc3?'
tRp543
sg56
F84920.947248191776
sg57
g38
(g40
S'o\xa4\x11\x04\x9c\xc2\xb0?'
tRp544
stRp545
ss(I9
I60
I300
tp546
(dp547
g4
(g5
((dp548
I0
F0.30545614365542789
sI2
F0.096900441598124776
sg7
F0.44332393778056167
sI4
F0.024403005378707019
sI5
F0.05181976099286327
sI6
F0.02614009752830623
sI7
F0.1286494631757393
sI8
F0.028421339025972665
sI9
F0.20660932169690882
sI10
F0.13160042694795002
sg8
F0.55667606221943833
sg9
F0.71029703330483662
sg10
F0.28970296669516343
sg11
F0.9055053824307423
sg12
F0.55667606221943833
sg13
F0.44332393778056167
sg14
F0.0944946175692577
stRp549
g5
((dp550
I0
I14595
sg17
I21474
sI2
I4630
sg7
I21233
sI4
I1166
sI5
I2476
sI6
I1249
sI7
I6147
sI8
I1358
sI9
I9872
sI10
I6288
sg8
I26662
sg18
F164931
sg19
F47781
sg20
I1580470
sg12
I26662
sg13
I21233
stRp551
tp552
sg23
(g5
((dp553
I0
F0.32811024667529576
sI2
F0.069556225024530072
sg7
F0.44332393778056167
sI4
F0.016725867022453354
sI5
F0.038464997063645277
sI6
F0.028078773422229832
sI7
F0.13819072876359084
sI8
F0.030529202808157015
sI9
F0.21033226914657149
sI10
F0.14001169007352618
sg8
F0.55667606221943833
sg9
F0.6749793582600957
sg10
F0.3250206417399043
sg11
F0.92030705820407555
sg12
F0.55667606221943833
sg13
F0.44332393778056167
sg14
F0.079692941795924455
stRp554
g5
((dp555
I0
I14595
sI2
F3094.0000031076484
sg7
I21233
sI4
F744.00001726945959
sI5
F1711.0000002513536
sI6
I1249
sI7
F6146.9999999742931
sI8
I1358
sI9
F9356.0000009147643
sI10
F6228.0000010038466
sg8
I26662
sg18
F136859.00004504272
sg19
F44482.000022521373
sg20
I1580470
sg12
I26662
sg13
I21233
stRp556
tp557
sg29
(g5
((dp558
I0
F0.33287718097844682
sI2
F0.057680465275401986
sg7
F0.44332393778056167
sI4
F0.015326719124187479
sI5
F0.03902383396054282
sI6
F0.028486714562663929
sI7
F0.14019842627437565
sI8
F0.03097274489679553
sI9
F0.21338807161591972
sI10
F0.14204584331166609
sg8
F0.55667606221943833
sg9
F0.67662352030091832
sg10
F0.32337647969908173
sg11
F0.92099029460011483
sg12
F0.55667606221943833
sg13
F0.44332393778056167
sg14
F0.079009705399885166
stRp559
g5
((dp560
I0
I14595
sI2
I2529
sg7
I21233
sI4
I672
sI5
I1711
sI6
I1249
sI7
I6147
sI8
I1358
sI9
I9356
sI10
I6228
sg8
I26662
sg18
F135585
sg19
F43845
sg20
I1580470
sg12
I26662
sg13
I21233
stRp561
tp562
sg35
g5
((dp563
g37
g38
(g40
S'\x00\xcf\xb3Y\t^\xd5@'
tRp564
sg42
g38
(g40
S'\xd7\xa3p\xfd\xe7r:A'
tRp565
sg44
g38
(g40
S'\xfd\xfa\x86\xe8\xdd\x86\xbe?'
tRp566
sg46
g38
(g40
S'L\xaf\x94MM\xb5@A'
tRp567
sg48
F143208.30201308129
sg49
g38
(g40
S'\xaeG\xe1:\x91\x8a@A'
tRp568
sg51
g38
(g40
S'\r\x15\xa7\xa9\xed\x91\xd7?'
tRp569
sg53
F206694.25918902564
sg54
g38
(g40
S'T^\xbe\xbf\xb3\xd6\xc9?'
tRp570
sg56
F349902.56120210694
sg57
g38
(g40
S'\xac\xc1\xf5\x96\x89&\xb5?'
tRp571
stRp572
ss(I1
I10
I300
tp573
(dp574
g4
(g5
((dp575
I0
F0.2342119228728109
sI2
F0.13273188277610709
sg7
F0.45787329515262443
sI4
F0.032136328792971285
sI5
F0.083200660416298131
sI6
F0.08408514652986615
sI7
F0.10855592900524795
sI8
F0.069874402971873348
sI9
F0.1722978949230497
sI10
F0.082905831711775457
sg8
F0.54212670484737557
sg9
F0.749719598583235
sg10
F0.25028040141676505
sg11
F0.015674254419733
sg12
F0.54212670484737557
sg13
F0.45787329515262443
sg14
F0.98432574558026698
stRp576
g5
((dp577
I0
I3972
sg17
I16905
sI2
I2251
sg7
I7755
sI4
I545
sI5
I1411
sI6
I1426
sI7
I1841
sI8
I1185
sI9
I2922
sI10
I1406
sg8
I9182
sg18
F67760
sg19
F16959
sg20
I1079
sg12
I9182
sg13
I7755
stRp578
tp579
sg23
(g5
((dp580
I0
F0.2545936234631524
sI2
F0.13710366588266568
sg7
F0.45787329515262443
sI4
F0.022754468205129476
sI5
F0.058157422598205076
sI6
F0.073455260008808587
sI7
F0.10313221061600683
sI8
F0.075955046274883087
sI9
F0.18472780078871356
sI10
F0.090120502162435112
sg8
F0.54212670484737557
sg9
F0.67591521845778069
sg10
F0.32408478154221931
sg11
F0.021922576744810091
sg12
F0.54212670484737557
sg13
F0.45787329515262443
sg14
F0.97807742325518987
stRp581
g5
((dp582
I0
I3972
sI2
F2139.0000011715338
sg7
I7755
sI4
F355.00004470400717
sI5
F907.33333937369252
sI6
F1146.000001045647
sI7
F1609.0000016283475
sI8
I1185
sI9
F2882.0000075098701
sI10
I1406
sg8
I9182
sg18
F48139.666790866198
sg19
F15601.333395433101
sg20
I1079
sg12
I9182
sg13
I7755
stRp583
tp584
sg29
(g5
((dp585
I0
F0.2568546301086394
sI2
F0.13832126228660113
sg7
F0.45787329515262443
sI4
F0.022956544231764096
sI5
F0.049793067770305226
sI6
F0.074107604759441281
sI7
F0.10404811174340403
sI8
F0.076629591308846348
sI9
F0.18636833936885669
sI10
F0.090920848422141751
sg8
F0.54212670484737557
sg9
F0.67692468400710326
sg10
F0.32307531599289668
sg11
F0.022045603138280485
sg12
F0.54212670484737557
sg13
F0.45787329515262443
sg14
F0.97795439686171948
stRp586
g5
((dp587
I0
I3972
sI2
I2139
sg7
I7755
sI4
I355
sI5
I770
sI6
I1146
sI7
I1609
sI8
I1185
sI9
I2882
sI10
I1406
sg8
I9182
sg18
F47865
sg19
F15464
sg20
I1079
sg12
I9182
sg13
I7755
stRp588
tp589
sg35
g5
((dp590
g37
g38
(g40
S'\x80\x8b1w-\xf2w@'
tRp591
sg42
g38
(g40
S'\xda\xce\xf7S\xfb\x04\xda@'
tRp592
sg44
g38
(g40
S'\xa8\xf9\xcb\x1f\xf1\xac\xaa?'
tRp593
sg46
g38
(g40
S'\xad\xa6y\xc77\xfc\xe2@'
tRp594
sg48
F1239.7944758228466
sg49
g38
(g40
S'\x96C\x8blS\xcc\xe2@'
tRp595
sg51
g38
(g40
S'\x04\x0b\xaaF%x\xd8?'
tRp596
sg53
F1388.16703218469
sg54
g38
(g40
S'\xa5m\x94\x83\xfd?\xb9?'
tRp597
sg56
F2627.9615080075355
sg57
g38
(g40
S'\xa8\xe1\\\xe7\t\xd3\xa7?'
tRp598
stRp599
ss(I50
I150
I800
tp600
(dp601
g4
(g5
((dp602
I2
F0.60848268952465767
sI7
F0.25386841812312144
sI9
F0.036040298341311366
sI10
F0.10160859401090949
sg11
F0.96840842010646566
sg10
F0.34399502177971375
sg9
F0.65600497822028625
sg14
F0.031591579893534338
stRp603
g5
((dp604
g18
F104455
sg17
I32591
sI2
I21864
sg19
F35932
sI7
I9122
sI9
I1295
sI10
I3651
sg20
I3201964
sg12
I0
sg13
I0
stRp605
tp606
sg23
(g5
((dp607
I2
F0.60848268952465767
sI7
F0.25386841812312144
sI9
F0.036040298341311366
sI10
F0.10160859401090949
sg11
F0.97804893842926388
sg10
F0.5
sg9
F0.5
sg14
F0.021951061570736119
stRp608
g5
((dp609
g18
F71864
sI2
I21864
sg19
F35932
sI7
I9122
sI9
I1295
sI10
I3651
sg20
I3201964
sg12
I0
sg13
I0
stRp610
tp611
sg29
(g5
((dp612
I2
F0.60848268952465767
sI7
F0.25386841812312144
sI9
F0.036040298341311366
sI10
F0.10160859401090949
sg11
F0.97804893842926388
sg10
F0.5
sg9
F0.5
sg14
F0.021951061570736119
stRp613
g5
((dp614
g18
F71864
sI2
I21864
sg19
F35932
sI7
I9122
sI9
I1295
sI10
I3651
sg20
I3201964
sg12
I0
sg13
I0
stRp615
tp616
sg35
g5
((dp617
g37
g38
(g40
S'\x80\x94\xf7*\x1am\xf8@'
tRp618
sg42
g38
(g40
S'333\xb3+{HA'
tRp619
sg44
g38
(g40
S'l\x8b\x1e=h\t\xc2?'
tRp620
sg46
g38
(g40
S'["\x89w\x92\x1acA'
tRp621
sg48
F478107.70294582832
sg49
g38
(g40
S'233C\xb8\xe9bA'
tRp622
sg51
g38
(g40
S'\x1a{\x87\x96d\xb8\xe8?'
tRp623
sg53
F452157.48467549798
sg54
g38
(g40
S'\t!\xec\x84\xe8\x8d\xd2?'
tRp624
sg56
F930265.1876213263
sg57
g38
(g40
S'\xa5\xb6\xb9\xcch\x12\xc3?'
tRp625
stRp626
ss(I5
I35
I300
tp627
(dp628
g4
(g5
((dp629
I0
F0.1794210093310738
sI2
F0.17520901745972589
sg7
F0.47963596280489529
sI4
F0.055487191747589884
sI5
F0.12034061583680816
sI6
F0.093802957535527698
sI7
F0.078881677483774337
sI8
F0.053166728780069332
sI9
F0.17473789316025962
sI10
F0.068952908665171259
sg8
F0.52036403719510471
sg9
F0.73139281437578152
sg10
F0.26860718562421854
sg11
F0.27307651118024873
sg12
F0.52036403719510471
sg13
F0.47963596280489529
sg14
F0.72692348881975133
stRp630
g5
((dp631
I0
I25516
sg17
I138877
sI2
I24917
sg7
I50910
sI4
I7891
sI5
I17114
sI6
I13340
sI7
I11218
sI8
I7561
sI9
I24850
sI10
I9806
sg8
I55233
sg18
F529446
sg19
F142213
sg20
I198892
sg12
I55233
sg13
I50910
stRp632
tp633
sg23
(g5
((dp634
I0
F0.20955233194150577
sI2
F0.13614824262938174
sg7
F0.47963596280489529
sI4
F0.042929922005438444
sI5
F0.09356598677302172
sI6
F0.08776790142822416
sI7
F0.092128784281202594
sI8
F0.062095359061362487
sI9
F0.19527885834253728
sI10
F0.080532613537325826
sg8
F0.52036403719510471
sg9
F0.6517752367585582
sg10
F0.3482247632414418
sg11
F0.36256867174457413
sg12
F0.52036403719510471
sg13
F0.47963596280489529
sg14
F0.63743132825542581
stRp635
g5
((dp636
I0
I25516
sI2
F16578.000000023963
sg7
I50910
sI4
F5227.3333335967654
sI5
F11393.000003296775
sI6
F10687.000006603103
sI7
F11217.999999996915
sI8
I7561
sI9
F23778.000002686949
sI10
I9806
sg8
I55233
sg18
F349671.66669240897
sg19
F121764.33334620447
sg20
I198892
sg12
I55233
sg13
I50910
stRp637
tp638
sg29
(g5
((dp639
I0
F0.21675529655617662
sI2
F0.10888734093341715
sg7
F0.47963596280489529
sI4
F0.042652780373434819
sI5
F0.096102550162252165
sI6
F0.090784756791654639
sI7
F0.095295536791314833
sI8
F0.064229769449022242
sI9
F0.201991199306818
sI10
F0.083300769635909544
sg8
F0.52036403719510471
sg9
F0.65537108545900069
sg10
F0.34462891454099931
sg11
F0.36799754288389203
sg12
F0.52036403719510471
sg13
F0.47963596280489529
sg14
F0.63200245711610803
stRp640
g5
((dp641
I0
I25516
sI2
I12818
sg7
I50910
sI4
I5021
sI5
I11313
sI6
I10687
sI7
I11218
sI8
I7561
sI9
I23778
sI10
I9806
sg8
I55233
sg18
F341579
sg19
F117718
sg20
I198892
sg12
I55233
sg13
I50910
stRp642
tp643
sg35
g5
((dp644
g37
g38
(g40
S'\x00\x90E\xd3Q\xcd\xb4@'
tRp645
sg42
g38
(g40
S'+\\\x8f\xc2\xa7\xe4\x18A'
tRp646
sg44
g38
(g40
S'\xab\xb5\xf7\x82\xd6\xe7\xb3?'
tRp647
sg46
g38
(g40
S'\xf8.\x17\xe1\x90I A'
tRp648
sg48
F18969.326124941021
sg49
g38
(g40
S'\xd8\xa3p=\xf6\x1f A'
tRp649
sg51
g38
(g40
S'\x9d\xa7\xc3\x00p+\xd5?'
tRp650
sg53
F31712.908880759973
sg54
g38
(g40
S'\x16<\xb3\x19\xf4\xcf\xbf?'
tRp651
sg56
F50682.235005700983
sg57
g38
(g40
S'\xd9\x0cw-;\xd0\xa7?'
tRp652
stRp653
ss(I35
I150
I400
tp654
(dp655
g4
(g5
((dp656
g10
F0.33333333333333331
sI7
F1
sg11
F0.99445629542681868
sg9
F0.66666666666666674
sg14
F0.0055437045731813184
stRp657
g5
((dp658
g18
F69861
sg17
I23287
sg19
F23287
sg20
I12532001
sI7
I23287
sg12
I0
sg13
I0
stRp659
tp660
sg23
(g5
((dp661
g10
F0.5
sI7
F1
sg11
F0.99629735482755399
sg9
F0.5
sg14
F0.0037026451724460063
stRp662
g5
((dp663
g18
F46574
sg19
F23287
sg20
I12532001
sI7
I23287
sg12
I0
sg13
I0
stRp664
tp665
sg29
(g5
((dp666
g10
F0.5
sI7
F1
sg11
F0.99629735482755399
sg9
F0.5
sg14
F0.0037026451724460063
stRp667
g5
((dp668
g18
F46574
sg19
F23287
sg20
I12532001
sI7
I23287
sg12
I0
sg13
I0
stRp669
tp670
sg35
g5
((dp671
g37
g38
(g40
S'\x00\xe9\xb8S\xe9f\x03A'
tRp672
sg42
g38
(g40
S'\x00\x00\x00\xa0\xef\x8agA'
tRp673
sg44
g38
(g40
S'\x98;\xed\xe9\x85\x1d\xb6?'
tRp674
sg46
g38
(g40
S'=}\xe8>\xd4SnA'
tRp675
sg48
F1266162.5270744199
sg49
g38
(g40
S'\x99\x99\x99\x998\x06nA'
tRp676
sg51
g38
(g40
S'Qf\x10\x81\xc7\xb4\xd7?'
tRp677
sg53
F1066301.1746689444
sg54
g38
(g40
S'\x1ee\xa4\xd0\x1a0\xc8?'
tRp678
sg56
F2332463.7017433648
sg57
g38
(g40
S'\xa2\x8e[\xb7\xafB\xba?'
tRp679
stRp680
ss(I39
I150
I4750
tp681
(dp682
g4
(g5
((dp683
I0
F0.26185656798625839
sI2
F0.13106940961105779
sg7
F0.43000219773319515
sI4
F0.030797641992532439
sI5
F0.070377329580735948
sI6
F0.067587074506261946
sI7
F0.08187705136166061
sI8
F0.064732304863592008
sI9
F0.19458400199995163
sI10
F0.09711861809794925
sg8
F0.56999780226680485
sg9
F0.76658873930851701
sg10
F0.23341126069148296
sg11
F0.0082974152011633176
sg12
F0.56999780226680485
sg13
F0.43000219773319515
sg14
F0.99170258479883666
stRp684
g5
((dp685
I0
I32471
sg17
I124003
sI2
I16253
sg7
I68480
sI4
I3819
sI5
I8727
sI6
I8381
sI7
I10153
sI8
I8027
sI9
I24129
sI10
I12043
sg8
I90775
sg18
F531264
sg19
F124003
sg20
I4445
sg12
I90775
sg13
I68480
stRp686
tp687
sg23
(g5
((dp688
I0
F0.2729901887882083
sI2
F0.12597348371950959
sg7
F0.43000219773319515
sI4
F0.022102528604810771
sI5
F0.0515249259470048
sI6
F0.070460742577499125
sI7
F0.085358300845859256
sI8
F0.067484593803792556
sI9
F0.20285732700781245
sI10
F0.10124790870550315
sg8
F0.56999780226680485
sg9
F0.70049914430787641
sg10
F0.29950085569212359
sg11
F0.011068465952722871
sg12
F0.56999780226680485
sg13
F0.43000219773319515
sg14
F0.98893153404727718
stRp689
g5
((dp690
I0
I32471
sI2
F14984.000003859781
sg7
I68480
sI4
F2629.0000000095638
sI5
F6128.6666669299002
sI6
I8381
sI7
F10152.999999997131
sI8
I8027
sI9
I24129
sI10
I12043
sg8
I90775
sg18
F397146.33334159269
sg19
F118945.66667079637
sg20
I4445
sg12
I90775
sg13
I68480
stRp691
tp692
sg29
(g5
((dp693
I0
F0.27345611951862425
sI2
F0.12618849111105496
sg7
F0.43000219773319515
sI4
F0.022140252478040811
sI5
F0.049906099727983967
sI6
F0.070581002669631049
sI7
F0.085503987603479784
sI8
F0.067599774302485205
sI9
F0.20320355726232284
sI10
F0.10142071532637713
sg8
F0.56999780226680485
sg9
F0.70070398572368364
sg10
F0.2992960142763163
sg11
F0.011079648841185884
sg12
F0.56999780226680485
sg13
F0.43000219773319515
sg14
F0.98892035115881416
stRp694
g5
((dp695
I0
I32471
sI2
I14984
sg7
I68480
sI4
I2629
sI5
I5926
sI6
I8381
sI7
I10153
sI8
I8027
sI9
I24129
sI10
I12043
sg8
I90775
sg18
F396741
sg19
F118743
sg20
I4445
sg12
I90775
sg13
I68480
stRp696
tp697
sg35
g5
((dp698
g37
g38
(g40
S'\x80\xc1\xf5(\\N\xa5@'
tRp699
sg42
g38
(g40
S'z\x14\xaeG\x17\x18\tA'
tRp700
sg44
g38
(g40
S'\xae\xba\t\xd5ve\xa4?'
tRp701
sg46
g38
(g40
S'\xb6\x1e\x85\xeb\xa5\xbf\x10A'
tRp702
sg48
F10508.813637640473
sg49
g38
(g40
S'3333\t\x95\x10A'
tRp703
sg51
g38
(g40
S'#W1\x18\x7fj\xd4?'
tRp704
sg53
F8189.2482353293726
sg54
g38
(g40
S'\xbd\x88\xb3\n\xf1H\xb7?'
tRp705
sg56
F18698.061872969847
sg57
g38
(g40
S'\xcbV]@k,\xaa?'
tRp706
stRp707
ss(I51
I150
I900
tp708
(dp709
g4
(g5
((dp710
I2
F0.58518890563089454
sg7
F1
sI7
F0.2277191807578548
sI9
F0.058959763379652884
sI10
F0.12813215023159774
sg11
F0.95024889625935205
sg10
F0.34366759045271911
sg8
F0
sg12
F0
sg9
F0.65633240954728089
sg13
F1
sg14
F0.049751103740647951
stRp711
g5
((dp712
g18
F104281
sg17
I31523
sI2
I20972
sg7
I1082
sI7
I8161
sI9
I2113
sI10
I4592
sg19
F35838
sg20
I1991773
sg12
I0
sg13
I1082
stRp713
tp714
sg23
(g5
((dp715
I2
F0.58518890563089454
sg7
F1
sI7
F0.2277191807578548
sI9
F0.058959763379652884
sI10
F0.12813215023159774
sg11
F0.96475809760182818
sg10
F0.49256439154457243
sg8
F0
sg12
F0
sg9
F0.50743560845542757
sg13
F1
sg14
F0.03524190239817182
stRp716
g5
((dp717
g18
F72758
sI2
I20972
sg7
I1082
sI7
I8161
sI9
I2113
sI10
I4592
sg19
F35838
sg20
I1991773
sg12
I0
sg13
I1082
stRp718
tp719
sg29
(g5
((dp720
I2
F0.58518890563089454
sg7
F1
sI7
F0.2277191807578548
sI9
F0.058959763379652884
sI10
F0.12813215023159774
sg11
F0.96475809760182818
sg10
F0.49256439154457243
sg8
F0
sg12
F0
sg9
F0.50743560845542757
sg13
F1
sg14
F0.03524190239817182
stRp721
g5
((dp722
g18
F72758
sI2
I20972
sg7
I1082
sI7
I8161
sI9
I2113
sI10
I4592
sg19
F35838
sg20
I1991773
sg12
I0
sg13
I1082
stRp723
tp724
sg35
g5
((dp725
g37
g38
(g40
S'\x80\xea\x8b\x84\xf8\x8d\xf2@'
tRp726
sg42
g38
(g40
S'3333\xa6T>A'
tRp727
sg44
g38
(g40
S'\xc3D>\\\xbap\xc8?'
tRp728
sg46
g38
(g40
S'D\xc9\xab\xfbk\xff\\A'
tRp729
sg48
F418510.34569461097
sg49
g38
(g40
S'\x9a\x99\x99\x194\xb5\\A'
tRp730
sg51
g38
(g40
S'\xa6O\x17\xc2\xe5\xfd\xea?'
tRp731
sg53
F379541.390190217
sg54
g38
(g40
S'\x9b<y\xd1\xed\xb1\xd9?'
tRp732
sg56
F798051.73588482791
sg57
g38
(g40
S'u4\xb4F!\xf3\xca?'
tRp733
stRp734
ss(I17
I150
I1250
tp735
(dp736
g4
(g5
((dp737
g10
F0.33333333333333331
sI4
F0.08249496981891348
sI7
F0.45472837022132795
sI8
F0.099597585513078471
sI10
F0.36317907444668007
sg11
F0.93903211956410626
sg9
F0.66666666666666674
sg14
F0.06096788043589374
stRp738
g5
((dp739
g18
F2982
sg17
I994
sg19
F994
sI4
I82
sI7
I452
sI8
I99
sI10
I361
sg20
I45929
sg12
I0
sg13
I0
stRp740
tp741
sg23
(g5
((dp742
g10
F0.5
sI4
F0.08249496981891348
sI7
F0.45472837022132795
sI8
F0.099597585513078471
sI10
F0.36317907444668007
sg11
F0.95851159296283162
sg9
F0.5
sg14
F0.041488407037168384
stRp743
g5
((dp744
g18
F1988
sg19
F994
sI4
I82
sI7
I452
sI8
I99
sI10
I361
sg20
I45929
sg12
I0
sg13
I0
stRp745
tp746
sg29
(g5
((dp747
g10
F0.5
sI4
F0.08249496981891348
sI7
F0.45472837022132795
sI8
F0.099597585513078471
sI10
F0.36317907444668007
sg11
F0.95851159296283162
sg9
F0.5
sg14
F0.041488407037168384
stRp748
g5
((dp749
g18
F1988
sg19
F994
sI4
I82
sI7
I452
sI8
I99
sI10
I361
sg20
I45929
sg12
I0
sg13
I0
stRp750
tp751
sg35
g5
((dp752
g37
g38
(g40
S'\x00\xa1E\xb6s\xc9\x9d@'
tRp753
sg42
g38
(g40
S'\xc1\xf5(\\o\x1b\xed@'
tRp754
sg44
g38
(g40
S'\xe0\n\xa2\x8c\xb8\xda\xce?'
tRp755
sg46
g38
(g40
S'\xd0Mb\x10\xd1\xd5\x07A'
tRp756
sg48
F1638.2229997561642
sg49
g38
(g40
S'\x8e\xc2\xf5(>\x9a\x07A'
tRp757
sg51
g38
(g40
S'!\xd6L\x1d\x9c\xda\xe8?'
tRp758
sg53
F14369.3372409322
sg54
g38
(g40
S'AZe\xc0\x9e/\xd1?'
tRp759
sg56
F16007.560240688365
sg57
g38
(g40
S"\x0fME\xa1'$\x9c?"
tRp760
stRp761
ss(I12
I125
I300
tp762
(dp763
g4
(g5
((dp764
I0
F0.031045751633986929
sg10
F0.33502776257136152
sg7
F0.75233644859813087
sI6
F0.028478057889822595
sI7
F0.88492063492063489
sI10
F0.055555555555555552
sg11
F0.98995674654196186
sg8
F0.24766355140186916
sg12
F0.24766355140186916
sg9
F0.66497223742863842
sg13
F0.75233644859813087
sg14
F0.010043253458038137
stRp765
g5
((dp766
I0
I133
sg17
I3791
sg7
I322
sI6
I122
sI7
I3791
sI10
I238
sg18
F12787
sg8
I106
sg19
F4284
sg20
I1260406
sg12
I106
sg13
I322
stRp767
tp768
sg23
(g5
((dp769
I0
F0.031045751633986929
sg10
F0.47621164962205426
sg7
F0.75233644859813087
sI6
F0.028478057889822595
sI7
F0.88492063492063489
sI10
F0.055555555555555552
sg11
F0.99291319849819049
sg8
F0.24766355140186916
sg12
F0.24766355140186916
sg9
F0.52378835037794569
sg13
F0.75233644859813087
sg14
F0.0070868015018095143
stRp770
g5
((dp771
I0
I133
sg18
F8996
sg7
I322
sI6
I122
sI7
I3791
sI10
I238
sg8
I106
sg19
F4284
sg20
I1260406
sg12
I106
sg13
I322
stRp772
tp773
sg29
(g5
((dp774
I0
F0.031045751633986929
sg10
F0.47621164962205426
sg7
F0.75233644859813087
sI6
F0.028478057889822595
sI7
F0.88492063492063489
sI10
F0.055555555555555552
sg11
F0.99291319849819049
sg8
F0.24766355140186916
sg12
F0.24766355140186916
sg9
F0.52378835037794569
sg13
F0.75233644859813087
sg14
F0.0070868015018095143
stRp775
g5
((dp776
I0
I133
sg18
F8996
sg7
I322
sI6
I122
sI7
I3791
sI10
I238
sg8
I106
sg19
F4284
sg20
I1260406
sg12
I106
sg13
I322
stRp777
tp778
sg35
g5
((dp779
g37
g38
(g40
S'\x80\r#\x84#\x92\xd0@'
tRp780
sg42
g38
(g40
S'\xf8(\\\x0f\x85\xd03A'
tRp781
sg44
g38
(g40
S'\xc6\x0eT\xd6\x02\x1c\xbd?'
tRp782
sg46
g38
(g40
S's\x96\xe7\xb1\xe3\x01:A'
tRp783
sg48
F112978.64669526786
sg49
g38
(g40
S'=\n\xd7#\x9b\xbf9A'
tRp784
sg51
g38
(g40
S'\x04s\\\x96\xc0\x06\xd9?'
tRp785
sg53
F147658.09965477197
sg54
g38
(g40
S'\xc7\xdc?\xd6\xe8\xb0\xc9?'
tRp786
sg56
F260636.74635003979
sg57
g38
(g40
S'\xcc\xaa+\xd6\xceE\xb6?'
tRp787
stRp788
ss(I3
I25
I300
tp789
(dp790
g4
(g5
((dp791
I0
F0.2048773256244904
sI2
F0.11648506411681862
sg7
F0.4459227180391544
sI4
F0.054239863612778889
sI5
F0.1198020902824105
sI6
F0.10015936550292788
sI7
F0.092172559484100511
sI8
F0.067545030020013344
sI9
F0.16005114520791638
sI10
F0.084667556148543474
sg8
F0.5540772819608456
sg9
F0.73891208530691044
sg10
F0.26108791469308962
sg11
F0.046769358483604667
sg12
F0.5540772819608456
sg13
F0.4459227180391544
sg14
F0.95323064151639536
stRp792
g5
((dp793
I0
I11056
sg17
I53964
sI2
I6286
sg7
I19976
sI4
I2927
sI5
I6465
sI6
I5405
sI7
I4974
sI8
I3645
sI9
I8637
sI10
I4569
sg8
I24821
sg18
F206689
sg19
F53964
sg20
I10141
sg12
I24821
sg13
I19976
stRp794
tp795
sg23
(g5
((dp796
I0
F0.22745070823767546
sI2
F0.10053831510513886
sg7
F0.4459227180391544
sI4
F0.039465125340844433
sI5
F0.094263671342811495
sI6
F0.089285100805030493
sI7
F0.10232813158229548
sI8
F0.074987141057012208
sI9
F0.17768557950875569
sI10
F0.093996227020435891
sg8
F0.5540772819608456
sg9
F0.65772073426373623
sg10
F0.34227926573626377
sg11
F0.066649286085708789
sg12
F0.5540772819608456
sg13
F0.4459227180391544
sg14
F0.93335071391429125
stRp797
g5
((dp798
I0
I11056
sI2
F4887.0000028353188
sg7
I19976
sI4
F1918.3339948646594
sI5
F4582.0000229548414
sI6
F4340.0000032926064
sI7
F4973.9999999985102
sI8
I3645
sI9
I8637
sI10
I4569
sg8
I24821
sg18
F142013.66804789187
sg19
F48608.334023945936
sg20
I10141
sg12
I24821
sg13
I19976
stRp799
tp800
sg29
(g5
((dp801
I0
F0.22844391181271567
sI2
F0.10097733330578341
sg7
F0.4459227180391544
sI4
F0.035270781246771493
sI5
F0.09467528979068951
sI6
F0.089674979854123191
sI7
F0.10277496539041676
sI8
F0.075314585614810831
sI9
F0.1784614748848069
sI10
F0.094406678099882221
sg8
F0.5540772819608456
sg9
F0.65819155172292021
sg10
F0.34180844827707973
sg11
F0.066834945825534495
sg12
F0.5540772819608456
sg13
F0.4459227180391544
sg14
F0.93316505417446549
stRp802
g5
((dp803
I0
I11056
sI2
I4887
sg7
I19976
sI4
I1707
sI5
I4582
sI6
I4340
sI7
I4974
sI8
I3645
sI9
I8637
sI10
I4569
sg8
I24821
sg18
F141591
sg19
F48397
sg20
I10141
sg12
I24821
sg13
I19976
stRp804
tp805
sg35
g5
((dp806
g37
g38
(g40
S'\xc0\xf8\xe4a\xe1S\x93@'
tRp807
sg42
g38
(g40
S'\x98\x99\x99\x99\xc1{\xf5@'
tRp808
sg44
g38
(g40
S'\x83;\x97O\x99\x80\xaf?'
tRp809
sg46
g38
(g40
S'\xedj+\xf6\x8cS\xfe@'
tRp810
sg48
F3908.6842658870678
sg49
g38
(g40
S'\n\xd7\xa3p=\x06\xfe@'
tRp811
sg51
g38
(g40
S'xx\xa4\x8a!w\xd7?'
tRp812
sg53
F5414.224614614498
sg54
g38
(g40
S'\xe8\x13d\x0cU\x1f\xbb?'
tRp813
sg56
F9322.9088805015654
sg57
g38
(g40
S'N\xec0\xc9\x10\xbe\xa6?'
tRp814
stRp815
ss(I14
I150
I10
tp816
(dp817
g4
(g5
((dp818
I0
F0.32143162401696668
sI2
F0.11172211061096844
sg7
F0.40588876058378454
sI4
F0.033965323736984417
sI5
F0.078634677061823754
sI6
F0.058502314546696327
sI7
F0.056358313396412556
sI8
F0.04051155675731808
sI9
F0.19122908620338455
sI10
F0.10764499366944519
sg8
F0.59411123941621546
sg9
F0.75478360649572274
sg10
F0.24521639350427726
sg11
F0.090840543628182974
sg12
F0.59411123941621546
sg13
F0.40588876058378454
sg14
F0.90915945637181705
stRp819
g5
((dp820
I0
I402389
sg17
I798420
sI2
I139861
sg7
I731815
sI4
I42520
sI5
I98440
sI6
I73237
sI7
I70553
sI8
I50715
sI9
I239393
sI10
I134757
sg8
I1071179
sg18
F5105144
sg19
F1251865
sg20
I510091
sg12
I1071179
sg13
I731815
stRp821
tp822
sg23
(g5
((dp823
I0
F0.35462190249137904
sI2
F0.082142806768645577
sg7
F0.40588876058378454
sI4
F0.024995182270086777
sI5
F0.057806830349526689
sI6
F0.051088453458043366
sI7
F0.062177741157108168
sI8
F0.044465549865154351
sI9
F0.20394136943568966
sI10
F0.11876016420436633
sg8
F0.59411123941621546
sg9
F0.7213679693625914
sg10
F0.27863203063740866
sg11
F0.11131324964293041
sg12
F0.59411123941621546
sg13
F0.40588876058378454
sg14
F0.88868675035706957
stRp824
g5
((dp825
I0
I402389
sI2
F93207.333333372051
sg7
I731815
sI4
F28362.000000049225
sI5
F65593.333333609233
sI6
F57970.000031310447
sI7
F70552.999999981199
sI8
F50455.000153648332
sI9
F231412.00001839345
sI10
I134757
sg8
I1071179
sg18
F4072391.333740728
sg19
F1134698.666870364
sg20
I510091
sg12
I1071179
sg13
I731815
stRp826
tp827
sg29
(g5
((dp828
I0
F0.36011444506493695
sI2
F0.072023068001202797
sg7
F0.40588876058378454
sI4
F0.022477340091928349
sI5
F0.057510703495281867
sI6
F0.051879734238297753
sI7
F0.063140777811188917
sI8
F0.045154252044045419
sI9
F0.20710010452911781
sI10
F0.12059957472400017
sg8
F0.59411123941621546
sg9
F0.72326561787200783
sg10
F0.27673438212799217
sg11
F0.11216044261609119
sg12
F0.59411123941621546
sg13
F0.40588876058378454
sg14
F0.88783955738390885
stRp829
g5
((dp830
I0
I402389
sI2
I80478
sg7
I731815
sI4
I25116
sI5
I64262
sI6
I57970
sI7
I70553
sI8
I50455
sI9
I231412
sI10
I134757
sg8
I1071179
sg18
F4037778
sg19
F1117392
sg20
I510091
sg12
I1071179
sg13
I731815
stRp831
tp832
sg35
g5
((dp833
g37
g38
(g40
S'\xc0\x015\xb5\xa2\xaa\xe2@'
tRp834
sg42
g38
(g40
S'\xcc\xcc\xcc\x0c\x07\xbdGA'
tRp835
sg44
g38
(g40
S'\xc90\xf0\t\xcb\x15\xb4?'
tRp836
sg46
g38
(g40
S'O\xb5O_X8MA'
tRp837
sg48
F378508.02647659945
sg49
g38
(g40
S'H\xe1z\xd4\xad\xedLA'
tRp838
sg51
g38
(g40
S'e\xf0`M(i\xd6?'
tRp839
sg53
F244115.76869379694
sg54
g38
(g40
S'\xafe\\\xf2#\x9d\xc9?'
tRp840
sg56
F622623.79517039657
sg57
g38
(g40
S'\x92\x9a\xc8\xda|$\xbf?'
tRp841
stRp842
ss(I42
I150
I5000
tp843
(dp844
g4
(g5
((dp845
I0
F0.25173804682888434
sI2
F0.12557388338689579
sg7
F0.42847062495335408
sI4
F0.032367023020922148
sI5
F0.074162130255132158
sI6
F0.076818390503049783
sI7
F0.087082704794385776
sI8
F0.06957106315996589
sI9
F0.17832196497671673
sI10
F0.10436479307404735
sg8
F0.57152937504664592
sg9
F0.76233425885332951
sg10
F0.23766574114667055
sg11
F0.0039243314371553836
sg12
F0.57152937504664592
sg13
F0.42847062495335408
sg14
F0.99607566856284457
stRp846
g5
((dp847
I0
I30706
sg17
I121886
sI2
I15317
sg7
I63151
sI4
I3948
sI5
I9046
sI6
I9370
sI7
I10622
sI8
I8486
sI9
I21751
sI10
I12730
sg8
I84236
sg18
F513225
sg19
F121976
sg20
I2022
sg12
I84236
sg13
I63151
stRp848
tp849
sg23
(g5
((dp850
I0
F0.2628098322635144
sI2
F0.1261925411089701
sg7
F0.42847062495335408
sI4
F0.022487104623366488
sI5
F0.057010887579829465
sI6
F0.072836308000510774
sI7
F0.090912721888329634
sI8
F0.072630894176648961
sI9
F0.18616481018575201
sI10
F0.10895490017307817
sg8
F0.57152937504664592
sg9
F0.69338995866076525
sg10
F0.3066100413392347
sg11
F0.0052782203339754455
sg12
F0.57152937504664592
sg13
F0.42847062495335408
sg14
F0.9947217796660246
stRp851
g5
((dp852
I0
I30706
sI2
F14744.00000151737
sg7
I63151
sI4
F2627.3333406824418
sI5
F6661.0000811193941
sI6
F8510.000003429006
sI7
I10622
sI8
I8486
sI9
I21751
sI10
I12730
sg8
I84236
sg18
F381061.6668534964
sg19
F116837.33342674821
sg20
I2022
sg12
I84236
sg13
I63151
stRp853
tp854
sg29
(g5
((dp855
I0
F0.2633673556908826
sI2
F0.12646024530405695
sg7
F0.42847062495335408
sI4
F0.02041341452954799
sI5
F0.057131829487949225
sI6
F0.072990822540526634
sI7
F0.091105583669268381
sI8
F0.072784972982245469
sI9
F0.18655973925722619
sI10
F0.10918603653829659
sg8
F0.57152937504664592
sg9
F0.69364132991037053
sg10
F0.30635867008962941
sg11
F0.005285044786964602
sg12
F0.57152937504664592
sg13
F0.42847062495335408
sg14
F0.99471495521303543
stRp856
g5
((dp857
I0
I30706
sI2
I14744
sg7
I63151
sI4
I2380
sI5
I6661
sI6
I8510
sI7
I10622
sI8
I8486
sI9
I21751
sI10
I12730
sg8
I84236
sg18
F380567
sg19
F116590
sg20
I2022
sg12
I84236
sg13
I63151
stRp858
tp859
sg35
g5
((dp860
g37
g38
(g40
S'\x00\xc1\xca\xa1Ee\xa4@'
tRp861
sg42
g38
(g40
S'\x13\xaeG\xe1Z\n\x08A'
tRp862
sg44
g38
(g40
S'\x17Fp2\x91\xb9\xa5?'
tRp863
sg46
g38
(g40
S'\xe8\xfb\xa9\xf1\x8d*\x10A'
tRp864
sg48
F8935.9738228164351
sg49
g38
(g40
S'ffff\xc3\x01\x10A'
tRp865
sg51
g38
(g40
S'\xde1\x82\xc3\x83\x97\xd4?'
tRp866
sg53
F8356.4108292778656
sg54
g38
(g40
S'\r\xb3\xe6\x06nz\xb6?'
tRp867
sg56
F17292.384652094297
sg57
g38
(g40
S'\x05 ]\xdbJ;\xa7?'
tRp868
stRp869
ss(I25
I150
I2250
tp870
(dp871
g4
(g5
((dp872
I0
F0.21941410754605448
sI2
F0.26271484822936958
sg7
F0.43812282697719185
sI4
F0.034020395440259192
sI5
F0.057271326543467095
sI6
F0.055791898029259088
sI7
F0.087887098285090393
sI8
F0.050697883254355106
sI9
F0.1512505693215625
sI10
F0.08095187335058257
sg8
F0.56187717302280815
sg9
F0.74998384799020545
sg10
F0.2500161520097946
sg11
F0.0042588369257888017
sg12
F0.56187717302280815
sg13
F0.43812282697719185
sg14
F0.99574116307421123
stRp873
g5
((dp874
I0
I67926
sg17
I305287
sI2
I81331
sg7
I137479
sI4
I10532
sI5
I17730
sI6
I17272
sI7
I27208
sI8
I15695
sI9
I46824
sI10
I25061
sg8
I176312
sg18
F1238236
sg19
F309579
sg20
I5296
sg12
I176312
sg13
I137479
stRp875
tp876
sg23
(g5
((dp877
I0
F0.25644097499714547
sI2
F0.20457339741048397
sg7
F0.43812282697719185
sI4
F0.026381790968159496
sI5
F0.046343056391703413
sI6
F0.057697898047836732
sI7
F0.089731311971394959
sI8
F0.059253321299358098
sI9
F0.16546003905962231
sI10
F0.094118209854295587
sg8
F0.56187717302280815
sg9
F0.68599423622599753
sg10
F0.31400576377400247
sg11
F0.0062390562236159372
sg12
F0.56187717302280815
sg13
F0.43812282697719185
sg14
F0.99376094377638402
stRp878
g5
((dp879
I0
I67926
sI2
F54187.333333369264
sg7
I137479
sI4
F6988.0000000902719
sI5
F12275.333333520068
sI6
F15283.000007471441
sI7
F23768.000012622088
sI8
I15695
sI9
F43827.000007658724
sI10
F24930.000061940358
sg8
I176312
sg18
F843550.33351334429
sg19
F264879.6667566722
sg20
I5296
sg12
I176312
sg13
I137479
stRp880
tp881
sg29
(g5
((dp882
I0
F0.26529137683904658
sI2
F0.18086805731849728
sg7
F0.43812282697719185
sI4
F0.025257476283280542
sI5
F0.046230515968020996
sI6
F0.059689192830891684
sI7
F0.092828157770374509
sI8
F0.061298297551583135
sI9
F0.17117046746054373
sI10
F0.097366457977761542
sg8
F0.56187717302280815
sg9
F0.68997441507633706
sg10
F0.31002558492366294
sg11
F0.0063717180418516968
sg12
F0.56187717302280815
sg13
F0.43812282697719185
sg14
F0.99362828195814834
stRp883
g5
((dp884
I0
I67926
sI2
I46310
sg7
I137479
sI4
I6467
sI5
I11837
sI6
I15283
sI7
I23768
sI8
I15695
sI9
I43827
sI10
I24930
sg8
I176312
sg18
F825877
sg19
F256043
sg20
I5296
sg12
I176312
sg13
I137479
stRp885
tp886
sg35
g5
((dp887
g37
g38
(g40
S'\x00#\xdc\x9d\rf\xba@'
tRp888
sg42
g38
(g40
S'\xcf\xcc\xcc\xcc<\x0b\x1dA'
tRp889
sg44
g38
(g40
S'\x1aQP\x9b\xb16\xa9?'
tRp890
sg46
g38
(g40
S'\xfe\xd6\xc0\x06<\xb8$A'
tRp891
sg48
F21353.869824913229
sg49
g38
(g40
S'\xb8\x1e\x85\xebo\x83$A'
tRp892
sg51
g38
(g40
S'$\x083\xe6\x9e]\xd7?'
tRp893
sg53
F23433.682234103428
sg54
g38
(g40
S'\x96\x9f-\xb5A\x18\xb8?'
tRp894
sg56
F44787.552059016663
sg57
g38
(g40
S'\x11\xee\n\xcf\xd1\xf9\xa6?'
tRp895
stRp896
ss(I44
I150
I5500
tp897
(dp898
g4
(g5
((dp899
I0
F0.27668695554361278
sI2
F0.11589656422241942
sg7
F0.38476790830945562
sI4
F0.032720500931121971
sI5
F0.052855232405544239
sI6
F0.074252290310082361
sI7
F0.073677369361712763
sI8
F0.089600179975253408
sI9
F0.19273599880016498
sI10
F0.091574908450088116
sg8
F0.61523209169054438
sg9
F0.7555296180980986
sg10
F0.2444703819019014
sg11
F0.01358092040423281
sg12
F0.61523209169054438
sg13
F0.38476790830945562
sg14
F0.98641907959576725
stRp900
g5
((dp901
I0
I22138
sg17
I80011
sI2
I9273
sg7
I33571
sI4
I2618
sI5
I4229
sI6
I5941
sI7
I5895
sI8
I7169
sI9
I15421
sI10
I7327
sg8
I53679
sg18
F327283
sg19
F80011
sg20
I4506
sg12
I53679
sg13
I33571
stRp902
tp903
sg23
(g5
((dp904
I0
F0.28739452127250825
sI2
F0.12038166933598198
sg7
F0.38476790830945562
sI4
F0.022225107406526255
sI5
F0.039984422409017742
sI6
F0.068531740838047764
sI7
F0.073101388999475964
sI8
F0.093067635875084098
sI9
F0.20019472908769309
sI10
F0.095118784775664822
sg8
F0.61523209169054438
sg9
F0.68078405356932259
sg10
F0.31921594643067741
sg11
F0.018330783987352307
sg12
F0.61523209169054438
sg13
F0.38476790830945562
sg14
F0.98166921601264767
stRp905
g5
((dp906
I0
I22138
sI2
I9273
sg7
I33571
sI4
F1712.000025564663
sI5
F3080.0000618366325
sI6
F5279.0000030450492
sI7
F5631.000001339291
sI8
I7169
sI9
I15421
sI10
I7327
sg8
I53679
sg18
F241310.00018357125
sg19
F77030.000091785638
sg20
I4506
sg12
I53679
sg13
I33571
stRp907
tp908
sg29
(g5
((dp909
I0
F0.28775313905425431
sI2
F0.12053188447240491
sg7
F0.38476790830945562
sI4
F0.021005017287545169
sI5
F0.040034315127251932
sI6
F0.068617256349598352
sI7
F0.073192606649855718
sI8
F0.093183767904957499
sI9
F0.20044453687576363
sI10
F0.095237476278368469
sg8
F0.61523209169054438
sg9
F0.68092801035177797
sg10
F0.31907198964822203
sg11
F0.018345112855421293
sg12
F0.61523209169054438
sg13
F0.38476790830945562
sg14
F0.98165488714457871
stRp910
g5
((dp911
I0
I22138
sI2
I9273
sg7
I33571
sI4
I1616
sI5
I3080
sI6
I5279
sI7
I5631
sI8
I7169
sI9
I15421
sI10
I7327
sg8
I53679
sg18
F241118
sg19
F76934
sg20
I4506
sg12
I53679
sg13
I33571
stRp912
tp913
sg35
g5
((dp914
g37
g38
(g40
S'\x00;\xdfO\x8d\xd1\x99@'
tRp915
sg42
g38
(g40
S'{\x14\xaeGY\xa5\xfe@'
tRp916
sg44
g38
(g40
S'\xd64\x05zX(\xac?'
tRp917
sg46
g38
(g40
S'\xc7v\xbe\x9f\xe2p\x04A'
tRp918
sg48
F9409.0819229008848
sg49
g38
(g40
S'Q\xb8\x1e\x85?=\x04A'
tRp919
sg51
g38
(g40
S'\xf3b\xfd\x9cGB\xd6?'
tRp920
sg53
F6903.3185102235193
sg54
g38
(g40
S'\x99yH\x16K\xa2\xc0?'
tRp921
sg56
F16312.400433124405
sg57
g38
(g40
S'\xc7X\x8e\xefi0\xb3?'
tRp922
stRp923
ss(I48
I150
I700
tp924
(dp925
g4
(g5
((dp926
I0
F0.01571357349927064
sI2
F0.32045718928301048
sg7
F0.74078431372549014
sI4
F0.052440127776649373
sI7
F0.57226212677954835
sI9
F0.012426833096367967
sI10
F0.026700149565153167
sg11
F0.97641922093467259
sg10
F0.33281507337577737
sg8
F0.2592156862745098
sg12
F0.2592156862745098
sg9
F0.66718492662422269
sg13
F0.74078431372549014
sg14
F0.023580779065327406
stRp927
g5
((dp928
I0
I851
sg17
I51860
sI2
I17355
sg7
I1889
sI4
I2840
sI7
I30992
sI9
I673
sI10
I1446
sg18
F162724
sg8
I661
sg19
F54157
sg20
I6737981
sg12
I661
sg13
I1889
stRp929
tp930
sg23
(g5
((dp931
I0
F0.01571357349927064
sI2
F0.32045718928301048
sg7
F0.74078431372549014
sI4
F0.052440127776649373
sI7
F0.57226212677954835
sI9
F0.012426833096367967
sI10
F0.026700149565153167
sg11
F0.98381274506869409
sg10
F0.48849942271612068
sg8
F0.2592156862745098
sg12
F0.2592156862745098
sg9
F0.51150057728387932
sg13
F0.74078431372549014
sg14
F0.016187254931305906
stRp932
g5
((dp933
I0
I851
sg18
F110864
sI2
I17355
sg7
I1889
sI4
I2840
sI7
I30992
sI9
I673
sI10
I1446
sg8
I661
sg19
F54157
sg20
I6737981
sg12
I661
sg13
I1889
stRp934
tp935
sg29
(g5
((dp936
I0
F0.01571357349927064
sI2
F0.32045718928301048
sg7
F0.74078431372549014
sI4
F0.052440127776649373
sI7
F0.57226212677954835
sI9
F0.012426833096367967
sI10
F0.026700149565153167
sg11
F0.98381274506869409
sg10
F0.48849942271612068
sg8
F0.2592156862745098
sg12
F0.2592156862745098
sg9
F0.51150057728387932
sg13
F0.74078431372549014
sg14
F0.016187254931305906
stRp937
g5
((dp938
I0
I851
sg18
F110864
sI2
I17355
sg7
I1889
sI4
I2840
sI7
I30992
sI9
I673
sI10
I1446
sg8
I661
sg19
F54157
sg20
I6737981
sg12
I661
sg13
I1889
stRp939
tp940
sg35
g5
((dp941
g37
g38
(g40
S'\x00E5^\xda\xd7\xff@'
tRp942
sg42
g38
(g40
S'\x00\x00\x00\xc0\xe6\xa5YA'
tRp943
sg44
g38
(g40
S'\xb2V\xf8\xc9a\x0f\xbd?'
tRp944
sg46
g38
(g40
S'\xbd\x9d\xef\xe7\xc8\xe6hA'
tRp945
sg48
F827799.34160573024
sg49
g38
(g40
S'3333\x19\xa7hA'
tRp946
sg51
g38
(g40
S'\xf7{/\t\x86k\xe3?'
tRp947
sg53
F763222.63072641555
sg54
g38
(g40
S'\x8dS\xf2q\x1bJ\xce?'
tRp948
sg56
F1591021.9723321456
sg57
g38
(g40
S'iP\xec\x19\xd5\x84\xbf?'
tRp949
stRp950
ss(I38
I150
I4500
tp951
(dp952
g4
(g5
((dp953
I0
F0.2427898763978811
sI2
F0.13349028840494409
sg7
F0.44772987550334331
sI4
F0.027394265534347935
sI5
F0.07618767342134028
sI6
F0.085293870343899778
sI7
F0.085377953417976965
sI8
F0.074968468847221054
sI9
F0.18194736399562769
sI10
F0.092550239636761122
sg8
F0.55227012449665669
sg9
F0.75833866723561627
sg10
F0.24166133276438376
sg11
F0.0022321971632240957
sg12
F0.55227012449665669
sg13
F0.44772987550334331
sg14
F0.99776780283677591
stRp954
g5
((dp955
I0
I28875
sg17
I118930
sI2
I15876
sg7
I60598
sI4
I3258
sI5
I9061
sI6
I10144
sI7
I10154
sI8
I8916
sI9
I21639
sI10
I11007
sg8
I74747
sg18
F492135
sg19
F118930
sg20
I1101
sg12
I74747
sg13
I60598
stRp956
tp957
sg23
(g5
((dp958
I0
F0.26516287642239689
sI2
F0.11377897976173444
sg7
F0.44772987550334331
sI4
F0.019743733415694405
sI5
F0.055166122469406671
sI6
F0.076422007243748188
sI7
F0.091124199275036746
sI8
F0.081876786361284523
sI9
F0.1956465840279685
sI10
F0.10107871102272978
sg8
F0.55227012449665669
sg9
F0.69163314873376214
sg10
F0.30836685126623786
sg11
F0.003108091564993626
sg12
F0.55227012449665669
sg13
F0.44772987550334331
sg14
F0.99689190843500641
stRp959
g5
((dp960
I0
I28875
sI2
F12390.000006586837
sg7
I60598
sI4
F2150.0004452735775
sI5
F6007.3333333684268
sI6
F8322.0000059436752
sI7
F9923.0001181433927
sI8
I8916
sI9
F21305.000119279233
sI10
I11007
sg8
I74747
sg18
F353135.66805719025
sg19
F108895.33402859513
sg20
I1101
sg12
I74747
sg13
I60598
stRp961
tp962
sg29
(g5
((dp963
I0
F0.26824781918006746
sI2
F0.11510270059362894
sg7
F0.44772987550334331
sI4
F0.017121410588705258
sI5
F0.047025816820415636
sI6
F0.077311111730442292
sI7
F0.092184350120305084
sI8
F0.082829352582146534
sI9
F0.19792276320801167
sI10
F0.10225467517627713
sg8
F0.55227012449665669
sg9
F0.69300204488479333
sg10
F0.30699795511520661
sg11
F0.0031302241479308109
sg12
F0.55227012449665669
sg13
F0.44772987550334331
sg14
F0.99686977585206915
stRp964
g5
((dp965
I0
I28875
sI2
I12390
sg7
I60598
sI4
I1843
sI5
I5062
sI6
I8322
sI7
I9923
sI8
I8916
sI9
I21305
sI10
I11007
sg8
I74747
sg18
F350631
sg19
F107643
sg20
I1101
sg12
I74747
sg13
I60598
stRp966
tp967
sg35
g5
((dp968
g37
g38
(g40
S'\x80\x15\xfb\xcb\x0e\xae\xa2@'
tRp969
sg42
g38
(g40
S'\xd7\xa3p=\x1c\x92\x06A'
tRp970
sg44
g38
(g40
S'\xc8\xc0H\xcb>N\xa7?'
tRp971
sg46
g38
(g40
S'\x94\xf6\x06\xdf\x84\xb9\rA'
tRp972
sg48
F11056.77185890906
sg49
g38
(g40
S'>\n\xd7\xa3\xccn\rA'
tRp973
sg51
g38
(g40
S'\x07\x7f(\xe9m\x85\xd4?'
tRp974
sg53
F8416.4119710490249
sg54
g38
(g40
S'6\xe4\xd2\xf2\x18\xf6\xba?'
tRp975
sg56
F19473.183829958085
sg57
g38
(g40
S'\xa5\x07]\x1a\xf3\x9d\xae?'
tRp976
stRp977
ss(I8
I50
I300
tp978
(dp979
g4
(g5
((dp980
I0
F0.29198670642690039
sI2
F0.12735323353113046
sg7
F0.4628908295114238
sI4
F0.032942759320059842
sI5
F0.064158558992740741
sI6
F0.063536050282639034
sI7
F0.057993714670120586
sI8
F0.035161701657680455
sI9
F0.2098657590088055
sI10
F0.11700151610992299
sg8
F0.5371091704885762
sg9
F0.71232864842382537
sg10
F0.28767135157617457
sg11
F0.70095151554936719
sg12
F0.5371091704885762
sg13
F0.4628908295114238
sg14
F0.29904848445063281
stRp981
g5
((dp982
I0
I29081
sg17
I51522
sI2
I12684
sg7
I44207
sI4
I3281
sI5
I6390
sI6
I6328
sI7
I5776
sI8
I3502
sI9
I20902
sI10
I11653
sg8
I51295
sg18
F346218
sg19
F99597
sg20
I811514
sg12
I51295
sg13
I44207
stRp983
tp984
sg23
(g5
((dp985
I0
F0.32260563611311704
sI2
F0.093635247730013332
sg7
F0.4628908295114238
sI4
F0.024656814185784141
sI5
F0.046922451830325659
sI6
F0.060081569623124963
sI7
F0.06407517465661465
sI8
F0.037173807194772528
sI9
F0.22157852126429609
sI10
F0.12927077740195156
sg8
F0.5371091704885762
sg9
F0.67314246240426212
sg10
F0.32685753759573788
sg11
F0.74635412571761595
sg12
F0.5371091704885762
sg13
F0.4628908295114238
sg14
F0.25364587428238405
stRp986
g5
((dp987
I0
I29081
sI2
F8440.6666667216396
sg7
I44207
sI4
F2222.6667270170292
sI5
F4229.7829576642607
sI6
F5416.0000031662657
sI7
F5775.999999998905
sI8
F3351.0000012898868
sI9
F19974.000003606863
sI10
I11653
sg8
I51295
sg18
F275790.23271892965
sg19
F90144.116359464853
sg20
I811514
sg12
I51295
sg13
I44207
stRp988
tp989
sg29
(g5
((dp990
I0
F0.32618473445123664
sI2
F0.084403566821827161
sg7
F0.4628908295114238
sI4
F0.024115304806236328
sI5
F0.047434243732824857
sI6
F0.060748135270035329
sI7
F0.064786046772474903
sI8
F0.037586226235208346
sI9
F0.22403678986035555
sI10
F0.1307049520498009
sg8
F0.5371091704885762
sg9
F0.67439337939900368
sg10
F0.32560662060099632
sg11
F0.74771451158453772
sg12
F0.5371091704885762
sg13
F0.4628908295114238
sg14
F0.25228548841546228
stRp991
g5
((dp992
I0
I29081
sI2
I7525
sg7
I44207
sI4
I2150
sI5
I4229
sI6
I5416
sI7
I5776
sI8
I3351
sI9
I19974
sI10
I11653
sg8
I51295
sg18
F273812
sg19
F89155
sg20
I811514
sg12
I51295
sg13
I44207
stRp993
tp994
sg35
g5
((dp995
g37
g38
(g40
S'\x80\xb8F=xw\xc8@'
tRp996
sg42
g38
(g40
S'\xbb\x1e\x85\xeb5\xbc.A'
tRp997
sg44
g38
(g40
S'\x8b[\xff\x04T\xca\xb9?'
tRp998
sg46
g38
(g40
S'{d\x1e\xa1\x9f/3A'
tRp999
sg48
F85072.505973784588
sg49
g38
(g40
S'\n\xd7\xa3\xb0\xb0\xfe2A'
tRp1000
sg51
g38
(g40
S'\xc0\xad\x97\x81^;\xd6?'
tRp1001
sg53
F101461.93145089237
sg54
g38
(g40
S"\x9a\x10'\x02\x15\xb5\xc7?"
tRp1002
sg56
F186534.4374246769
sg57
g38
(g40
S'\xad\xc5N\xff\xd5\x9f\xb5?'
tRp1003
stRp1004
ss(I13
I150
I300
tp1005
(dp1006
g4
(g5
((dp1007
g10
F0.31956541258866838
sg7
F0
sI5
F0.017701601573475695
sI7
F0.92863163810059002
sg11
F0.99041064515684629
sI2
F0.053666760325934253
sg8
F1
sg12
F1
sg9
F0.68043458741133156
sg13
F0
sg14
F0.0095893548431537079
stRp1008
g5
((dp1009
g18
F11137
sg17
I3559
sI2
I191
sg19
F3559
sI5
I63
sI7
I3305
sg8
I460
sg20
I1150255
sg12
I460
sg13
I0
stRp1010
tp1011
sg23
(g5
((dp1012
g10
F0.4691689008048181
sg7
F0
sI5
F0.017999999999671133
sI7
F0.94428571426846175
sg11
F0.99355627248491463
sI2
F0.037714285731867081
sg8
F1
sg12
F1
sg9
F0.5308310991951819
sg13
F0
sg14
F0.0064437275150853734
stRp1013
g5
((dp1014
g18
F7460.0000001278931
sI2
F132.00000006394649
sg19
F3500.0000000639466
sI5
I63
sI7
I3305
sg8
I460
sg20
I1150255
sg12
I460
sg13
I0
stRp1015
tp1016
sg29
(g5
((dp1017
g10
F0.46916890080428952
sg7
F0
sI5
F0.017999999999999999
sI7
F0.94428571428571428
sg11
F0.99355627248502443
sI2
F0.037714285714285714
sg8
F1
sg12
F1
sg9
F0.53083109919571048
sg13
F0
sg14
F0.0064437275149755724
stRp1018
g5
((dp1019
g18
F7460
sI2
I132
sg19
F3500
sI5
I63
sI7
I3305
sg8
I460
sg20
I1150255
sg12
I460
sg13
I0
stRp1020
tp1021
sg35
g5
((dp1022
g37
g38
(g40
S'\x80\x02\xe3\x19x\x9d\xcf@'
tRp1023
sg42
g38
(g40
S'\xd8\xa3p=Q|2A'
tRp1024
sg44
g38
(g40
S'z\xa6f\xeb\xcc\xa3\xc0?'
tRp1025
sg46
g38
(g40
S'\xf1\x17\xec\x0e\x11\xb68A'
tRp1026
sg48
F99167.706641923738
sg49
g38
(g40
S'\xecQ\xb8\x1e\xd6v8A'
tRp1027
sg51
g38
(g40
S'\x98]\xeeIAD\xda?'
tRp1028
sg53
F157490.05961394904
sg54
g38
(g40
S'\xe4\xe5p/\x18\x1e\xcb?'
tRp1029
sg56
F256657.76625587279
sg57
g38
(g40
S'\xd3~\x14\x88\x96\xf4\xb4?'
tRp1030
stRp1031
ss(I4
I30
I300
tp1032
(dp1033
g4
(g5
((dp1034
I0
F0.1856405432944786
sI2
F0.15707615304511405
sg7
F0.46926595512960134
sI4
F0.060857491574008757
sI5
F0.11993460758955066
sI6
F0.089768999070621566
sI7
F0.088447714064966917
sI8
F0.059692969196143641
sI9
F0.16517182303738789
sI10
F0.073409699127727948
sg8
F0.53073404487039866
sg9
F0.73453166197501285
sg10
F0.26546833802498715
sg11
F0.15490470436624071
sg12
F0.53073404487039866
sg13
F0.46926595512960134
sg14
F0.84509529563375929
stRp1035
g5
((dp1036
I0
I16579
sg17
I88934
sI2
I14028
sg7
I32316
sI4
I5435
sI5
I10711
sI6
I8017
sI7
I7899
sI8
I5331
sI9
I14751
sI10
I6556
sg8
I36549
sg18
F336413
sg19
F89307
sg20
I61664
sg12
I36549
sg13
I32316
stRp1037
tp1038
sg23
(g5
((dp1039
I0
F0.2141408660480171
sI2
F0.12036355331698016
sg7
F0.46926595512960134
sI4
F0.04636984794810519
sI5
F0.091801104743336998
sI6
F0.088425620966631674
sI7
F0.10202658187543304
sI8
F0.068353547931719938
sI9
F0.18383900999981381
sI10
F0.084679867169962009
sg8
F0.53073404487039866
sg9
F0.65391784783695173
sg10
F0.34608215216304827
sg11
F0.21608362440623302
sg12
F0.53073404487039866
sg13
F0.46926595512960134
sg14
F0.78391637559376703
stRp1040
g5
((dp1041
I0
I16579
sI2
F9318.666666804078
sg7
I32316
sI4
F3590.0000000899154
sI5
F7107.3333344907196
sI6
F6846.0000048615721
sI7
F7898.9999999977454
sI8
F5292.000037516792
sI9
F14233.00000151996
sI10
I6556
sg8
I36549
sg18
F223707.00009056157
sg19
F77421.000045280787
sg20
I61664
sg12
I36549
sg13
I32316
stRp1042
tp1043
sg29
(g5
((dp1044
I0
F0.21663116906874338
sI2
F0.11540421528530923
sg7
F0.46926595512960134
sI4
F0.043145914727365384
sI5
F0.091361670434203138
sI6
F0.08945394676666972
sI7
F0.10321307705374293
sI8
F0.069148449647855117
sI9
F0.18597692438358313
sI10
F0.085664632632527993
sg8
F0.53073404487039866
sg9
F0.65515236992344328
sg10
F0.34484763007655672
sg11
F0.21743990465141699
sg12
F0.53073404487039866
sg13
F0.46926595512960134
sg14
F0.78256009534858295
stRp1045
g5
((dp1046
I0
I16579
sI2
I8832
sg7
I32316
sI4
I3302
sI5
I6992
sI6
I6846
sI7
I7899
sI8
I5292
sI9
I14233
sI10
I6556
sg8
I36549
sg18
F221927
sg19
F76531
sg20
I61664
sg12
I36549
sg13
I32316
stRp1047
tp1048
sg35
g5
((dp1049
g37
g38
(g40
S'\x80\xbf\x0e\x9cs\xec\xa3@'
tRp1050
sg42
g38
(g40
S'\x98\x99\x99\x99-7\x07A'
tRp1051
sg44
g38
(g40
S'\x8b\xb0\xfa\xf7\x10O\xb6?'
tRp1052
sg46
g38
(g40
S'\xac\x82QI$g\x0fA'
tRp1053
sg48
F11815.313577167954
sg49
g38
(g40
S'\xaeG\xe1zr\x17\x0fA'
tRp1054
sg51
g38
(g40
S'\x05\xff\x95\xc3\xa6\xbf\xd7?'
tRp1055
sg53
F16573.185648769821
sg54
g38
(g40
S'\x91V\x19\xe8J\x1b\xc3?'
tRp1056
sg56
F28388.499225937776
sg57
g38
(g40
S'-\xf9o\xb0\t\xcf\xaf?'
tRp1057
stRp1058
ss(I10
I80
I300
tp1059
(dp1060
g4
(g5
((dp1061
I0
F0.29658460640264667
sI2
F0.05848010119684733
sg7
F0.50421899529042391
sI4
F0.031332100807628688
sI5
F0.035126982582465702
sI6
F0.022380072005449062
sI7
F0.40284129609808311
sI8
F0.018098666926145764
sI9
F0.06383185754597645
sI10
F0.071324316434757229
sg8
F0.49578100470957615
sg9
F0.72037656789921911
sg10
F0.27962343210078089
sg11
F0.97570916829693866
sg12
F0.49578100470957615
sg13
F0.50421899529042391
sg14
F0.024290831703061344
stRp1062
g5
((dp1063
I0
I3048
sg17
I6007
sI2
I601
sg7
I5139
sI4
I322
sI5
I361
sI6
I230
sI7
I4140
sI8
I186
sI9
I656
sI10
I733
sg8
I5053
sg18
F36753
sg19
F10277
sg20
I1476287
sg12
I5053
sg13
I5139
stRp1064
tp1065
sg23
(g5
((dp1066
I0
F0.30656786309651674
sI2
F0.036946426545417958
sg7
F0.50421899529042391
sI4
F0.032386762439986352
sI5
F0.026150802869262597
sI6
F0.023133401742847393
sI7
F0.41640123137125307
sI8
F0.018707881409433108
sI9
F0.065980484970903863
sI10
F0.073725145554378868
sg8
F0.49578100470957615
sg9
F0.66943366525519454
sg10
F0.33056633474480546
sg11
F0.98003359476026042
sg12
F0.49578100470957615
sg13
F0.50421899529042391
sg14
F0.019966405239739582
stRp1067
g5
((dp1068
I0
I3048
sI2
F367.33370214666002
sg7
I5139
sI4
I322
sI5
F260.0000089390258
sI6
I230
sI7
I4140
sI8
I186
sI9
I656
sI10
I733
sg8
I5053
sg18
F30076.667422171369
sg19
F9942.3337110856864
sg20
I1476287
sg12
I5053
sg13
I5139
stRp1069
tp1070
sg29
(g5
((dp1071
I0
F0.30710327455919395
sI2
F0.035264483627204031
sg7
F0.50421899529042391
sI4
F0.032443324937027708
sI5
F0.026196473551637279
sI6
F0.023173803526448364
sI7
F0.41712846347607052
sI8
F0.018740554156171284
sI9
F0.066095717884130989
sI10
F0.07385390428211587
sg8
F0.49578100470957615
sg9
F0.66962918580653752
sg10
F0.33037081419346248
sg11
F0.98005614975214583
sg12
F0.49578100470957615
sg13
F0.50421899529042391
sg14
F0.019943850247854167
stRp1072
g5
((dp1073
I0
I3048
sI2
I350
sg7
I5139
sI4
I322
sI5
I260
sI6
I230
sI7
I4140
sI8
I186
sI9
I656
sI10
I733
sg8
I5053
sg18
F30042
sg19
F9925
sg20
I1476287
sg12
I5053
sg13
I5139
stRp1074
tp1075
sg35
g5
((dp1076
g37
g38
(g40
S'\x00\xa75\xcdET\xd3@'
tRp1077
sg42
g38
(g40
S'x\x14\xae\x87\xf3\xa07A'
tRp1078
sg44
g38
(g40
S'\xc7\xf8\xb5\te\xf2\xbe?'
tRp1079
sg46
g38
(g40
S'\xa6\xad\xd8\x87\xd2A>A'
tRp1080
sg48
F132805.29154631437
sg49
g38
(g40
S'\n\xd7\xa3p\x81\xf4=A'
tRp1081
sg51
g38
(g40
S't\x83\xbd\x14?Y\xd8?'
tRp1082
sg53
F187196.01370536149
sg54
g38
(g40
S'\xe8\xf1h\x06ss\xca?'
tRp1083
sg56
F320001.30525167595
sg57
g38
(g40
S'\x04\xeb\x1b\x03\x81\xf4\xb5?'
tRp1084
stRp1085
ss(I19
I150
I150
tp1086
(dp1087
g4
(g5
((dp1088
g10
F0.32193970963665902
sg7
F0.61033572236891742
sI7
F1
sg11
F0.99314392722899048
sg8
F0.38966427763108263
sg12
F0.38966427763108263
sg9
F0.67806029036334103
sg13
F0.61033572236891742
sg14
F0.0068560727710095248
stRp1089
g5
((dp1090
g18
F77558
sg17
I24969
sg19
F24969
sI7
I24969
sg8
I1033
sg7
I1618
sg20
I11234749
sg12
I1033
sg13
I1618
stRp1091
tp1092
sg23
(g5
((dp1093
g10
F0.47479510924337787
sg7
F0.61033572236891742
sI7
F1
sg11
F0.99534088551259825
sg8
F0.38966427763108263
sg12
F0.38966427763108263
sg9
F0.52520489075662213
sg13
F0.61033572236891742
sg14
F0.0046591144874017498
stRp1094
g5
((dp1095
g18
F52589
sg19
F24969
sI7
I24969
sg8
I1033
sg7
I1618
sg20
I11234749
sg12
I1033
sg13
I1618
stRp1096
tp1097
sg29
(g5
((dp1098
g10
F0.47479510924337787
sg7
F0.61033572236891742
sI7
F1
sg11
F0.99534088551259825
sg8
F0.38966427763108263
sg12
F0.38966427763108263
sg9
F0.52520489075662213
sg13
F0.61033572236891742
sg14
F0.0046591144874017498
stRp1099
g5
((dp1100
g18
F52589
sg19
F24969
sI7
I24969
sg8
I1033
sg7
I1618
sg20
I11234749
sg12
I1033
sg13
I1618
stRp1101
tp1102
sg35
g5
((dp1103
g37
g38
(g40
S'\x80ByX\x9b{\xfd@'
tRp1104
sg42
g38
(g40
S'\x00\x00\x00\x80\x9a\xc9dA'
tRp1105
sg44
g38
(g40
S'W\x1c4\x98\x90\xc2\xb3?'
tRp1106
sg46
g38
(g40
S'R\xbf}\xe3\\\x1dgA'
tRp1107
sg48
F1193967.2473166471
sg49
g38
(g40
S'\xcd\xcc\xcc\xace\xe2fA'
tRp1108
sg51
g38
(g40
S'H\xa4jl\x0b1\xd1?'
tRp1109
sg53
F841239.88572263066
sg54
g38
(g40
S'\xb3\xe1\xa1O\x14\xe7\xc7?'
tRp1110
sg56
F2035207.1330392784
sg57
g38
(g40
S'\n\xa7\x0f\x07\x98\x0b\xbc?'
tRp1111
stRp1112
ss(I34
I150
I40
tp1113
(dp1114
g4
(g5
((dp1115
I0
F0.34242376758908144
sI2
F0.080340969632392109
sg7
F0.440831098772001
sI4
F0.013149895013945909
sI5
F0.024544799272932401
sI7
F0.22403083769469428
sI8
F0.018396063806449592
sI9
F0.19533673885110783
sI10
F0.10177692813939641
sg8
F0.559168901227999
sg9
F0.71974149712442781
sg10
F0.28025850287557219
sg11
F0.96940705924055104
sg12
F0.559168901227999
sg13
F0.440831098772001
sg14
F0.030592940759448961
stRp1116
g5
((dp1117
I0
I54632
sg17
I60367
sI2
I12818
sg7
I83679
sI4
I2098
sI5
I3916
sI7
I35743
sI8
I2935
sI9
I31165
sI10
I16238
sg8
I106142
sg18
F569278
sg19
F159545
sg20
I18038871
sg12
I106142
sg13
I83679
stRp1118
tp1119
sg23
(g5
((dp1120
I0
F0.35192187530188779
sI2
F0.054831582270096484
sg7
F0.440831098772001
sI4
F0.013514645160041012
sI5
F0.025225619850677124
sI7
F0.23024497709978356
sI8
F0.018906331527512091
sI9
F0.20075496492501341
sI10
F0.10460000386498854
sg8
F0.559168901227999
sg9
F0.6897075548821584
sg10
F0.3102924451178416
sg11
F0.973013948305126
sg12
F0.559168901227999
sg13
F0.440831098772001
sg14
F0.026986051694874003
stRp1121
g5
((dp1122
I0
I54632
sg18
F500299.00000005821
sI2
F8512.0000000291038
sg7
I83679
sI4
I2098
sI5
I3916
sI7
I35743
sI8
I2935
sI9
I31165
sI10
I16238
sg8
I106142
sg19
F155239.0000000291
sg20
I18038871
sg12
I106142
sg13
I83679
stRp1123
tp1124
sg29
(g5
((dp1125
I0
F0.35549193128578865
sI2
F0.045243362831858404
sg7
F0.440831098772001
sI4
F0.013651743883394065
sI5
F0.025481520041644976
sI7
F0.2325806871421135
sI8
F0.019098125976054137
sI9
F0.2027915148360229
sI10
F0.10566111400312338
sg8
F0.559168901227999
sg9
F0.69089727885820262
sg10
F0.30910272114179743
sg11
F0.97317762164240795
sg12
F0.559168901227999
sg13
F0.440831098772001
sg14
F0.026822378357592047
stRp1126
g5
((dp1127
I0
I54632
sg18
F497181
sI2
I6953
sg7
I83679
sI4
I2098
sI5
I3916
sI7
I35743
sI8
I2935
sI9
I31165
sI10
I16238
sg8
I106142
sg19
F153680
sg20
I18038871
sg12
I106142
sg13
I83679
stRp1128
tp1129
sg35
g5
((dp1130
g37
g38
(g40
S'\x00\xec&1\xde\xf1\x08A'
tRp1131
sg42
g38
(g40
S'\x9a\x99\x99\xd9"wqA'
tRp1132
sg44
g38
(g40
S'\xdb\xe1V\xcaT\x07\xb6?'
tRp1133
sg46
g38
(g40
S'\xa4\x1a/yU\x85sA'
tRp1134
sg48
F1626617.9182015217
sg49
g38
(g40
S'\xcc\xcc\xcc\xbcqSsA'
tRp1135
sg51
g38
(g40
S'?\xd1\xe5g\x89\xc0\xd0?'
tRp1136
sg53
F1575888.5968062687
sg54
g38
(g40
S'\xc83\xceO\x19b\xc6?'
tRp1137
sg56
F3202506.5150077911
sg57
g38
(g40
S'\xb3\x85E\xd5\xdd\xbc\xb6?'
tRp1138
stRp1139
ss(I26
I150
I25
tp1140
(dp1141
g4
(g5
((dp1142
I0
F0.36606623609684941
sI2
F0.080091743999692905
sg7
F0.42168988522358719
sI4
F0.018915002447146435
sI5
F0.040538180282717391
sI6
F0.033221692273734921
sI7
F0.11397752463940578
sI8
F0.024323675901845435
sI9
F0.20811876817366104
sI10
F0.11474717618494669
sg8
F0.57831011477641281
sg9
F0.73000459134443485
sg10
F0.26999540865556521
sg11
F0.90292360369656544
sg12
F0.57831011477641281
sg13
F0.42168988522358719
sg14
F0.097076396303434564
stRp1143
g5
((dp1144
I0
I190726
sg17
I173604
sI2
I41729
sg7
I301122
sI4
I9855
sI5
I21121
sI6
I17309
sI7
I59384
sI8
I12673
sI9
I108433
sI10
I59785
sg8
I412962
sg18
F1929718
sg19
F521015
sg20
I17948626
sg12
I412962
sg13
I301122
stRp1145
tp1146
sg23
(g5
((dp1147
I0
F0.38962476905231508
sI2
F0.056762653402784531
sg7
F0.42168988522358719
sI4
F0.013353434982115019
sI5
F0.028696606680866994
sI6
F0.028493683497500047
sI7
F0.1213126542023744
sI8
F0.025889048678208473
sI9
F0.21373531211515914
sI10
F0.1221318373886762
sg8
F0.57831011477641281
sg9
F0.71087963670603171
sg10
F0.28912036329396834
sg11
F0.91380048216505039
sg12
F0.57831011477641281
sg13
F0.42168988522358719
sg14
F0.086199517834949613
stRp1148
g5
((dp1149
I0
I190726
sI2
F27786.000000030428
sg7
I301122
sI4
F6536.6666667357149
sI5
F14047.333333369654
sI6
F13948.000000006425
sI7
F59383.999999998414
sI8
I12673
sI9
F104626.00013245648
sI10
I59785
sg8
I412962
sg18
F1693108.0002651941
sg19
F489512.00013259717
sg20
I17948626
sg12
I412962
sg13
I301122
stRp1150
tp1151
sg29
(g5
((dp1152
I0
F0.39557563237843979
sI2
F0.047927192480317245
sg7
F0.42168988522358719
sI4
F0.012305350224412421
sI5
F0.024816031591959314
sI6
F0.02892887661050134
sI7
F0.12316550104947029
sI8
F0.026284460373163426
sI9
F0.21699975940997371
sI10
F0.12399719588176245
sg8
F0.57831011477641281
sg9
F0.7127301326278912
sg10
F0.2872698673721088
sg11
F0.91448619315651103
sg12
F0.57831011477641281
sg13
F0.42168988522358719
sg14
F0.085513806843488971
stRp1153
g5
((dp1154
I0
I190726
sI2
I23108
sg7
I301122
sI4
I5933
sI5
I11965
sI6
I13948
sI7
I59384
sI8
I12673
sI9
I104626
sI10
I59785
sg8
I412962
sg18
F1678380
sg19
F482148
sg20
I17948626
sg12
I412962
sg13
I301122
stRp1155
tp1156
sg35
g5
((dp1157
g37
g38
(g40
S'\x80\xe38\xc5\xab\xc1\tA'
tRp1158
sg42
g38
(g40
S'\x00\x00\x00\xd0\x11,rA'
tRp1159
sg44
g38
(g40
S'|\xf2,\xd1\x1d\xdd\xb6?'
tRp1160
sg46
g38
(g40
S'\xc6q\x8a\x7fO*tA'
tRp1161
sg48
F1797671.7721920994
sg49
g38
(g40
S"\xff\xff\xff'\xcc\xf6sA"
tRp1162
sg51
g38
(g40
S'<\xfa\xa7M\xf5\xea\xd0?'
tRp1163
sg53
F1701819.0682982367
sg54
g38
(g40
S'B\xc4\xecs\xf3\x81\xc7?'
tRp1164
sg56
F3499490.8404903361
sg57
g38
(g40
S'\t\x96\xac\x16\xc9&\xb8?'
tRp1165
stRp1166
ss(I32
I150
I3333
tp1167
(dp1168
g4
(g5
((dp1169
I0
F0.23253935272391146
sI2
F0.22084713704806994
sg7
F0.45105583839415975
sI4
F0.039915876634599327
sI5
F0.075856671806244391
sI6
F0.057146408056579369
sI7
F0.071598072075780936
sI8
F0.053227641865938584
sI9
F0.17432295449337615
sI10
F0.074545885295499825
sg8
F0.54894416160584025
sg9
F0.74828797422258631
sg10
F0.25171202577741369
sg11
F0.0033735282526292818
sg12
F0.54894416160584025
sg13
F0.45105583839415975
sg14
F0.99662647174737073
stRp1170
g5
((dp1171
I0
I119748
sg17
I514835
sI2
I113727
sg7
I226011
sI4
I20555
sI5
I39063
sI6
I29428
sI7
I36870
sI8
I27410
sI9
I89769
sI10
I38388
sg8
I275060
sg18
F2045822
sg19
F514958
sg20
I6925
sg12
I275060
sg13
I226011
stRp1172
tp1173
sg23
(g5
((dp1174
I0
F0.27398108591642295
sI2
F0.1733938376353466
sg7
F0.45105583839415975
sI4
F0.031626754105533263
sI5
F0.060176174472262901
sI6
F0.053918547906869847
sI7
F0.077532794374996397
sI8
F0.062031726637348072
sI9
F0.1797002745749133
sI10
F0.087638804376306806
sg8
F0.54894416160584025
sg9
F0.68218056318062903
sg10
F0.31781943681937103
sg11
F0.0050103849409765732
sg12
F0.54894416160584025
sg13
F0.45105583839415975
sg14
F0.99498961505902339
stRp1175
g5
((dp1176
I0
I119748
sI2
F75784.666666703197
sg7
I226011
sI4
F13823.000000024391
sI5
F26301.000000060943
sI6
F23566.000014765352
sI7
F33887.000008640171
sI8
F27112.000000011307
sI9
F78541.000039546314
sI10
F38304.000115012765
sg8
I275060
sg18
F1375204.3336895288
sg19
F437066.66684476438
sg20
I6925
sg12
I275060
sg13
I226011
stRp1177
tp1178
sg29
(g5
((dp1179
I0
F0.2845932091004803
sI2
F0.15434359470398248
sg7
F0.45105583839415975
sI4
F0.025769483968638374
sI5
F0.056622517343245346
sI6
F0.0560069777003534
sI7
F0.080535875979456661
sI8
F0.064434404625816066
sI9
F0.18666061425627839
sI10
F0.091033322321748988
sg8
F0.54894416160584025
sg9
F0.6866034713010265
sg10
F0.31339652869897344
sg11
F0.0051314009132041134
sg12
F0.54894416160584025
sg13
F0.45105583839415975
sg14
F0.99486859908679592
stRp1180
g5
((dp1181
I0
I119748
sI2
I64943
sg7
I226011
sI4
I10843
sI5
I23825
sI6
I23566
sI7
I33887
sI8
I27112
sI9
I78541
sI10
I38304
sg8
I275060
sg18
F1342609
sg19
F420769
sg20
I6925
sg12
I275060
sg13
I226011
stRp1182
tp1183
sg35
g5
((dp1184
g37
g38
(g40
S'\x005\xb5lu\x02\xc4@'
tRp1185
sg42
g38
(g40
S"\t\xd7\xa3pmZ'A"
tRp1186
sg44
g38
(g40
S'<@\x0b\xfc\xa8\x7f\xa1?'
tRp1187
sg46
g38
(g40
S'\x82\x1c\x94\xd0\xb0M/A'
tRp1188
sg48
F32622.315944161499
sg49
g38
(g40
S'\xaeG\xe1\xfa\xa6\xfd.A'
tRp1189
sg51
g38
(g40
S'\x98\xa3d\x15\xe8\xeb\xd3?'
tRp1190
sg53
F26153.635847552938
sg54
g38
(g40
S'\x12?_\\\xa5\xa9\xb3?'
tRp1191
sg56
F58775.951791714433
sg57
g38
(g40
S'\xe8=\xb3\xbc\xa1\xd3\xa5?'
tRp1192
stRp1193
ss(I30
I150
I300
tp1194
(dp1195
g4
(g5
((dp1196
g10
F0.32230346532441811
sg7
F0
sI7
F1
sg11
F0.99433460529323059
sg8
F1
sg12
F1
sg9
F0.67769653467558189
sg13
F0
sg14
F0.005665394706769411
stRp1197
g5
((dp1198
g18
F67151
sg17
I21642
sg19
F21643
sI7
I21643
sg8
I2223
sg20
I11785686
sg12
I2223
sg13
I0
stRp1199
tp1200
sg23
(g5
((dp1201
g10
F0.47557625964095013
sg7
F0
sI7
F1
sg11
F0.99615347393057085
sg8
F1
sg12
F1
sg9
F0.52442374035904993
sg13
F0
sg14
F0.0038465260694291459
stRp1202
g5
((dp1203
g18
F45509
sg19
F21643
sg20
I11785686
sI7
I21643
sg12
I2223
sg8
I2223
sg13
I0
stRp1204
tp1205
sg29
(g5
((dp1206
g10
F0.47557625964095013
sg7
F0
sI7
F1
sg11
F0.99615347393057085
sg8
F1
sg12
F1
sg9
F0.52442374035904993
sg13
F0
sg14
F0.0038465260694291459
stRp1207
g5
((dp1208
g18
F45509
sg19
F21643
sg20
I11785686
sI7
I21643
sg12
I2223
sg8
I2223
sg13
I0
stRp1209
tp1210
sg35
g5
((dp1211
g37
g38
(g40
S'\xc0\xeb\x04\xb4\xfdj\x00A'
tRp1212
sg42
g38
(g40
S'\x00\x00\x00P\xbb\xd8eA'
tRp1213
sg44
g38
(g40
S':\xa1\xec\x1b\xe1\xfb\xb3?'
tRp1214
sg46
g38
(g40
S'\xae\x13\xd0\x16\x8f\xaeiA'
tRp1215
sg48
F1237113.7997434749
sg49
g38
(g40
S'\xff\xff\xff\x1f\xe3liA'
tRp1216
sg51
g38
(g40
S'\xd1C\x19\xb3\x0c\xb0\xd3?'
tRp1217
sg53
F894116.88941890071
sg54
g38
(g40
S'/\xec\xc6\xe3$\xd1\xc7?'
tRp1218
sg56
F2131230.6891623759
sg57
g38
(g40
S'#7\xa1\xabh\xa6\xbb?'
tRp1219
stRp1220
ss(I29
I150
I30
tp1221
(dp1222
g4
(g5
((dp1223
I0
F0.36170503601696263
sI2
F0.064560326028215931
sg7
F0.45490309516922189
sI4
F0.021696007934540046
sI5
F0.039796677411356313
sI6
F0.0096161793409499825
sI7
F0.17617794223298811
sI8
F0.021155594550089963
sI9
F0.18870599604544558
sI10
F0.11658624043945146
sg8
F0.54509690483077811
sg9
F0.71887634183744598
sg10
F0.28112365816255402
sg11
F0.93781570399824299
sg12
F0.54509690483077811
sg13
F0.45490309516922189
sg14
F0.062184296001757011
stRp1224
g5
((dp1225
I0
I113783
sg17
I109570
sI2
I20309
sg7
I172986
sI4
I6825
sI5
I12519
sI6
I3025
sI7
I55421
sI8
I6655
sI9
I59362
sI10
I36675
sg8
I207284
sg18
F1118988
sg19
F314574
sg20
I16875716
sg12
I207284
sg13
I172986
stRp1226
tp1227
sg23
(g5
((dp1228
I0
F0.38072553885609994
sI2
F0.045191980592881716
sg7
F0.45490309516922189
sI4
F0.015113069180016368
sI5
F0.027814739425109158
sI6
F0.010121852605746925
sI7
F0.18544237793821264
sI8
F0.022268075732643236
sI9
F0.19060535928391201
sI10
F0.12271700638537801
sg8
F0.54509690483077811
sg9
F0.69441471594701554
sg10
F0.30558528405298441
sg11
F0.94522219368575311
sg12
F0.54509690483077811
sg13
F0.45490309516922189
sg14
F0.054777806314246891
stRp1229
g5
((dp1230
I0
I113783
sI2
F13506.000000024622
sg7
I172986
sI4
F4516.6666666922783
sI5
F8312.6666666913261
sI6
I3025
sI7
F55420.999999999302
sI8
I6655
sI9
F56964.000000006519
sI10
I36675
sg8
I207284
sg18
F977986.6666668281
sg19
F298858.33333341405
sg20
I16875716
sg12
I207284
sg13
I172986
stRp1231
tp1232
sg29
(g5
((dp1233
I0
F0.38843068309835116
sI2
F0.036018844092445296
sg7
F0.45490309516922189
sI4
F0.0117946267026252
sI5
F0.021851636909841942
sI6
F0.010326699211415697
sI7
F0.1891953709077254
sI8
F0.022718738265114533
sI9
F0.19446284095176322
sI10
F0.12520055986071757
sg8
F0.54509690483077811
sg9
F0.6968006375953546
sg10
F0.30319936240464535
sg11
F0.94585033409659514
sg12
F0.54509690483077811
sg13
F0.45490309516922189
sg14
F0.054149665903404864
stRp1234
g5
((dp1235
I0
I113783
sI2
I10551
sg7
I172986
sI4
I3455
sI5
I6401
sI6
I3025
sI7
I55421
sI8
I6655
sI9
I56964
sI10
I36675
sg8
I207284
sg18
F966130
sg19
F292930
sg20
I16875716
sg12
I207284
sg13
I172986
stRp1236
tp1237
sg35
g5
((dp1238
g37
g38
(g40
S'\x80\x15\xb1\xd6P\xc1\x07A'
tRp1239
sg42
g38
(g40
S'\xcc\xcc\xcc<\xff\xa5pA'
tRp1240
sg44
g38
(g40
S'\xe1\xc6\\\xeb\xe3\x04\xb6?'
tRp1241
sg46
g38
(g40
S'\xc4\xfbF;J\x92rA'
tRp1242
sg48
F1590791.9615395784
sg49
g38
(g40
S'\x99\x99\x99\x99\xc7brA'
tRp1243
sg51
g38
(g40
S'\xd0o`\x0e9\xca\xd0?'
tRp1244
sg53
F1501525.6070037852
sg54
g38
(g40
S'\xb8l7\xb7r\xac\xc6?'
tRp1245
sg56
F3092317.5685433643
sg57
g38
(g40
S'\x8c\x12\x12\x83\x01T\xb7?'
tRp1246
stRp1247
ss(I41
I150
I500
tp1248
(dp1249
g4
(g5
((dp1250
g10
F0.28697109342270632
sg7
F1
sI7
F1
sg11
F0.99389166957886077
sg8
F0
sg12
F0
sg9
F0.71302890657729368
sg13
F1
sg14
F0.0061083304211392297
stRp1251
g5
((dp1252
g18
F76384
sg17
I21920
sg7
I10624
sI7
I21920
sg19
F21920
sg20
I12428506
sg12
I0
sg13
I10624
stRp1253
tp1254
sg23
(g5
((dp1255
g10
F0.40246768507638075
sg7
F1
sI7
F1
sg11
F0.99563693576128121
sg8
F0
sg12
F0
sg9
F0.59753231492361925
sg13
F1
sg14
F0.0043630642387187946
stRp1256
g5
((dp1257
g18
F54464
sg7
I10624
sg20
I12428506
sI7
I21920
sg12
I0
sg19
F21920
sg13
I10624
stRp1258
tp1259
sg29
(g5
((dp1260
g10
F0.40246768507638075
sg7
F1
sI7
F1
sg11
F0.99563693576128121
sg8
F0
sg12
F0
sg9
F0.59753231492361925
sg13
F1
sg14
F0.0043630642387187946
stRp1261
g5
((dp1262
g18
F54464
sg7
I10624
sg20
I12428506
sI7
I21920
sg12
I0
sg19
F21920
sg13
I10624
stRp1263
tp1264
sg35
g5
((dp1265
g37
g38
(g40
S'\x80N-["w\x03A'
tRp1266
sg42
g38
(g40
S'\x00\x00\x00P\xe9KgA'
tRp1267
sg44
g38
(g40
S'\x8fFFF\xaes\xb5?'
tRp1268
sg46
g38
(g40
S'\xd2N\x06\xa3unnA'
tRp1269
sg48
F1258286.8544538869
sg49
g38
(g40
S'\x98\x99\x99\x19\x99 nA'
tRp1270
sg51
g38
(g40
S'2\xc3G\x13\x8b(\xd8?'
tRp1271
sg53
F1023496.7925621745
sg54
g38
(g40
S'\xf0&T\x86\x93\xe9\xc7?'
tRp1272
sg56
F2281783.6470160615
sg57
g38
(g40
S'O\x07b\xc6x_\xba?'
tRp1273
stRp1274
ss(I46
I150
I600
tp1275
(dp1276
g4
(g5
((dp1277
I0
F0.12782072712076892
sg10
F0.3270326366408432
sg7
F0.51351896690879739
sI5
F0.017263894692854158
sI7
F0.65221479314667785
sI9
F0.1360217300459674
sI10
F0.066678854993731718
sg11
F0.99156540705266172
sg8
F0.48648103309120261
sg12
F0.48648103309120261
sg9
F0.67296736335915686
sg13
F0.51351896690879739
sg14
F0.0084345929473382819
stRp1278
g5
((dp1279
I0
I4894
sg17
I25633
sg7
I7635
sI5
I661
sI7
I24972
sI9
I5208
sI10
I2553
sg18
F117077
sg8
I7233
sg19
F38288
sg20
I13763498
sg12
I7233
sg13
I7635
stRp1280
tp1281
sg23
(g5
((dp1282
I0
F0.12782072712076892
sg10
F0.41870434364201042
sg7
F0.51351896690879739
sI5
F0.017263894692854158
sI7
F0.65221479314667785
sI9
F0.1360217300459674
sI10
F0.066678854993731718
sg11
F0.99339990019445767
sg8
F0.48648103309120261
sg12
F0.48648103309120261
sg9
F0.58129565635798963
sg13
F0.51351896690879739
sg14
F0.0066000998055423254
stRp1283
g5
((dp1284
I0
I4894
sg18
F91444
sg7
I7635
sI5
I661
sI7
I24972
sI9
I5208
sI10
I2553
sg8
I7233
sg19
F38288
sg20
I13763498
sg12
I7233
sg13
I7635
stRp1285
tp1286
sg29
(g5
((dp1287
I0
F0.12782072712076892
sg10
F0.41870434364201042
sg7
F0.51351896690879739
sI5
F0.017263894692854158
sI7
F0.65221479314667785
sI9
F0.1360217300459674
sI10
F0.066678854993731718
sg11
F0.99339990019445767
sg8
F0.48648103309120261
sg12
F0.48648103309120261
sg9
F0.58129565635798963
sg13
F0.51351896690879739
sg14
F0.0066000998055423254
stRp1288
g5
((dp1289
I0
I4894
sg18
F91444
sg7
I7635
sI5
I661
sI7
I24972
sI9
I5208
sI10
I2553
sg8
I7233
sg19
F38288
sg20
I13763498
sg12
I7233
sg13
I7635
stRp1290
tp1291
sg35
g5
((dp1292
g37
g38
(g40
S'\x80W*opN\x06A'
tRp1293
sg42
g38
(g40
S'433cj"jA'
tRp1294
sg44
g38
(g40
S'\xdc\xc5v6]l\xb7?'
tRp1295
sg46
g38
(g40
S'\x16\xbbD\xefNmqA'
tRp1296
sg48
F1354887.9071831959
sg49
g38
(g40
S'gff\x0e\xb2@qA'
tRp1297
sg51
g38
(g40
S'V\xf4\xf9J\xb0%\xd9?'
tRp1298
sg53
F1253692.7455424028
sg54
g38
(g40
S'd8\n\xd2^^\xc8?'
tRp1299
sg56
F2608580.6527255988
sg57
g38
(g40
S'\xec\xaa\x9dm`P\xb9?'
tRp1300
stRp1301
ss(I28
I150
I2750
tp1302
(dp1303
g4
(g5
((dp1304
I0
F0.19879290275485173
sI2
F0.23051414253677849
sg7
F0.44789418251434954
sI4
F0.045025286237578836
sI5
F0.085193904997402328
sI6
F0.074638791521711961
sI7
F0.080674277747453296
sI8
F0.046975187262838766
sI9
F0.16074188308485521
sI10
F0.077443623856529378
sg8
F0.55210581748565046
sg9
F0.74389275965113877
sg10
F0.25610724034886123
sg11
F0.0062484831747466382
sg12
F0.55210581748565046
sg13
F0.44789418251434954
sg14
F0.99375151682525331
stRp1305
g5
((dp1306
I0
I120913
sg17
I601118
sI2
I140207
sg7
I249628
sI4
I27386
sI5
I51818
sI6
I45398
sI7
I49069
sI8
I28572
sI9
I97769
sI10
I47104
sg8
I307709
sg18
F2374927
sg19
F608236
sg20
I14933
sg12
I307709
sg13
I249628
stRp1307
tp1308
sg23
(g5
((dp1309
I0
F0.23456208143330093
sI2
F0.18126265798529656
sg7
F0.44789418251434954
sI4
F0.035353182635828886
sI5
F0.066950671594436351
sI6
F0.072787904223001285
sI7
F0.09232682294004306
sI8
F0.054820324193644618
sI9
F0.17055815510002678
sI10
F0.091378199894421669
sg8
F0.55210581748565046
sg9
F0.67545024411457721
sg10
F0.32454975588542279
sg11
F0.0093142752347770523
sg12
F0.55210581748565046
sg13
F0.44789418251434954
sg14
F0.99068572476522299
stRp1310
g5
((dp1311
I0
I120913
sI2
F93438.00000004856
sg7
I249628
sI4
F18224.000000023458
sI5
F34512.000000306958
sI6
F37521.000024969384
sI7
F47593.000002107481
sI8
F28259.000000010659
sI9
F87920.000034079334
sI10
I47104
sg8
I307709
sg18
F1588305.0001230915
sg19
F515484.00006154575
sg20
I14933
sg12
I307709
sg13
I249628
stRp1312
tp1313
sg29
(g5
((dp1314
I0
F0.24198958495943257
sI2
F0.16552989821119077
sg7
F0.44789418251434954
sI4
F0.027726743278456235
sI5
F0.067623713630414153
sI6
F0.075092762707590327
sI7
F0.095250389263141888
sI8
F0.056556232012840678
sI9
F0.17595894824901634
sI10
F0.094271727687917029
sg8
F0.55210581748565046
sg9
F0.67901681869077468
sg10
F0.32098318130922532
sg11
F0.0095018178995338494
sg12
F0.55210581748565046
sg13
F0.44789418251434954
sg14
F0.99049818210046614
stRp1315
g5
((dp1316
I0
I120913
sI2
I82709
sg7
I249628
sI4
I13854
sI5
I33789
sI6
I37521
sI7
I47593
sI8
I28259
sI9
I87920
sI10
I47104
sg8
I307709
sg18
F1556661
sg19
F499662
sg20
I14933
sg12
I307709
sg13
I249628
stRp1317
tp1318
sg35
g5
((dp1319
g37
g38
(g40
S'\x80\x1b\x91am\xaf\xc7@'
tRp1320
sg42
g38
(g40
S'\xf5(\\\x0f(U+A'
tRp1321
sg44
g38
(g40
S'\xdbDF\xd5~\xd1\xa7?'
tRp1322
sg46
g38
(g40
S'\x0e\xc63\xd8\xe8\x8e2A'
tRp1323
sg48
F49384.136276188969
sg49
g38
(g40
S'\xd7\xa3p\xfd\x89_2A'
tRp1324
sg51
g38
(g40
S'\x88\xa9\xe1\xf3S\xa9\xd5?'
tRp1325
sg53
F41665.165790147294
sg54
g38
(g40
S'Ph\xc3\xfbO\x06\xba?'
tRp1326
sg56
F91049.302066336269
sg57
g38
(g40
S'\xc4\x8b@"!;\xac?'
tRp1327
stRp1328
ss(I45
I150
I5750
tp1329
(dp1330
g4
(g5
((dp1331
I0
F0.25928939856778005
sI2
F0.1195102408733537
sg7
F0.42152311287635058
sI4
F0.029383043717762531
sI5
F0.083041213881516349
sI6
F0.074114878060994538
sI7
F0.066628273824427861
sI8
F0.06577695427913266
sI9
F0.19427612799839752
sI10
F0.10797986879663478
sg8
F0.57847688712364942
sg9
F0.7616004727638479
sg10
F0.2383995272361521
sg11
F0.011030496947943847
sg12
F0.57847688712364942
sg13
F0.42152311287635058
sg14
F0.98896950305205611
stRp1332
g5
((dp1333
I0
I20711
sg17
I79876
sI2
I9546
sg7
I40223
sI4
I2347
sI5
I6633
sI6
I5920
sI7
I5322
sI8
I5254
sI9
I15518
sI10
I8625
sg8
I55200
sg18
F335051
sg19
F79876
sg20
I3737
sg12
I55200
sg13
I40223
stRp1334
tp1335
sg23
(g5
((dp1336
I0
F0.26936583079937648
sI2
F0.11986265738011609
sg7
F0.42152311287635058
sI4
F0.026128914808916211
sI5
F0.062051295388999859
sI6
F0.071038393529157612
sI7
F0.069217563203796656
sI8
F0.068333159915983016
sI9
F0.20182603265630461
sI10
F0.11217615231734934
sg8
F0.57847688712364942
sg9
F0.69145943602450721
sg10
F0.30854056397549284
sg11
F0.014774488407485383
sg12
F0.57847688712364942
sg13
F0.42152311287635058
sg14
F0.98522551159251459
stRp1337
g5
((dp1338
I0
I20711
sI2
F9216.0000013087429
sg7
I40223
sI4
F2009.0000019732133
sI5
F4771.0000002143952
sI6
F5462.0000020648085
sI7
F5321.999999998332
sI8
I5254
sI9
I15518
sI10
I8625
sg8
I55200
sg18
F249199.00001111897
sg19
F76888.000005559501
sg20
I3737
sg12
I55200
sg13
I40223
stRp1339
tp1340
sg29
(g5
((dp1341
I0
F0.2693658308188534
sI2
F0.11986265737176152
sg7
F0.42152311287635058
sI4
F0.026128914785142024
sI5
F0.062051295390698161
sI6
F0.071038393507439387
sI7
F0.069217563208823218
sI8
F0.068333159920923939
sI9
F0.20182603267089794
sI10
F0.11217615232546041
sg8
F0.57847688712364942
sg9
F0.69145943603304993
sg10
F0.30854056396695012
sg11
F0.014774488408134865
sg12
F0.57847688712364942
sg13
F0.42152311287635058
sg14
F0.98522551159186511
stRp1342
g5
((dp1343
I0
I20711
sI2
I9216
sg7
I40223
sI4
I2009
sI5
I4771
sI6
I5462
sI7
I5322
sI8
I5254
sI9
I15518
sI10
I8625
sg8
I55200
sg18
F249199
sg19
F76888
sg20
I3737
sg12
I55200
sg13
I40223
stRp1344
tp1345
sg35
g5
((dp1346
g37
g38
(g40
S'\x00\xdc$\x06\x018\x9b@'
tRp1347
sg42
g38
(g40
S'\xc3\xf5(\\#@\xff@'
tRp1348
sg44
g38
(g40
S'\xddk\xda)n\x8c\xac?'
tRp1349
sg46
g38
(g40
S'\xd6\xce\xf7S\x02|\x05A'
tRp1350
sg48
F10346.722022334361
sg49
g38
(g40
S'\x1e\x85\xebQ\x92E\x05A'
tRp1351
sg51
g38
(g40
S'f\xb8\x13`\xc6\xcf\xd7?'
tRp1352
sg53
F7137.262217526004
sg54
g38
(g40
S'I\\\xa6\x9b\xd2{\xc1?'
tRp1353
sg56
F17483.984239860361
sg57
g38
(g40
S'\xa6\x82_"n\xb1\xb4?'
tRp1354
stRp1355
ss(I7
I45
I300
tp1356
(dp1357
g4
(g5
((dp1358
I0
F0.25394152762896066
sI2
F0.13168595558335941
sg7
F0.46126172729196546
sI4
F0.038666569057427505
sI5
F0.081632381421412367
sI6
F0.072368377268582917
sI7
F0.060189406291802819
sI8
F0.040869432113883358
sI9
F0.21469595831198132
sI10
F0.10595039232258967
sg8
F0.53873827270803454
sg9
F0.71366803106873078
sg10
F0.28633196893126922
sg11
F0.52133100431901414
sg12
F0.53873827270803454
sg13
F0.46126172729196546
sg14
F0.47866899568098586
stRp1359
g5
((dp1360
I0
I38157
sg17
I96667
sI2
I19787
sg7
I58851
sI4
I5810
sI5
I12266
sI6
I10874
sI7
I9044
sI8
I6141
sI9
I32260
sI10
I15920
sg8
I68736
sg18
F524772
sg19
F150259
sg20
I571543
sg12
I68736
sg13
I58851
stRp1361
tp1362
sg23
(g5
((dp1363
I0
F0.28345000228383105
sI2
F0.097744453968023282
sg7
F0.46126172729196546
sI4
F0.028525513242116052
sI5
F0.060856904423045255
sI6
F0.068609802206129236
sI7
F0.06718352649983933
sI8
F0.045239681315219257
sI9
F0.23012809241322371
sI10
F0.11826202364857276
sg8
F0.53873827270803454
sg9
F0.66076194137606192
sg10
F0.33923805862393813
sg11
F0.59021585572786028
sg12
F0.53873827270803454
sg13
F0.46126172729196546
sg14
F0.40978414427213972
stRp1364
g5
((dp1365
I0
I38157
sI2
F13158.000000025455
sg7
I58851
sI4
F3840.000000033554
sI5
F8192.3333334282324
sI6
F9236.0000059474678
sI7
F9043.9999999978863
sI8
F6090.0000212957839
sI9
F30979.000005152848
sI10
I15920
sg8
I68736
sg18
F396819.66673176247
sg19
F134616.33336588123
sg20
I571543
sg12
I68736
sg13
I58851
stRp1366
tp1367
sg29
(g5
((dp1368
I0
F0.29204840302174462
sI2
F0.07974558563523225
sg7
F0.46126172729196546
sI4
F0.024385203554453401
sI5
F0.058337734303843002
sI6
F0.070691067177944628
sI7
F0.069221525720802438
sI8
F0.046612018093729189
sI9
F0.23710898333754296
sI10
F0.12184947915470751
sg8
F0.53873827270803454
sg9
F0.66403869444808727
sg10
F0.33596130555191273
sg11
F0.59508702297706462
sg12
F0.53873827270803454
sg13
F0.46126172729196546
sg14
F0.40491297702293538
stRp1369
g5
((dp1370
I0
I38157
sI2
I10419
sg7
I58851
sI4
I3186
sI5
I7622
sI6
I9236
sI7
I9044
sI8
I6090
sI9
I30979
sI10
I15920
sg8
I68736
sg18
F388893
sg19
F130653
sg20
I571543
sg12
I68736
sg13
I58851
stRp1371
tp1372
sg35
g5
((dp1373
g37
g38
(g40
S'\xc0\xa0^)\x7f[\xc4@'
tRp1374
sg42
g38
(g40
S'\xafG\xe1\xfawM)A'
tRp1375
sg44
g38
(g40
S'\xa5);Y2`\xb8?'
tRp1376
sg46
g38
(g40
S'\xff\x8eS\xc4r\xd8/A'
tRp1377
sg48
F63562.518028117061
sg49
g38
(g40
S'|\x14\xae\xc7\x04\x87/A'
tRp1378
sg51
g38
(g40
S"Y\xa2'W\xb8\xe3\xd5?"
tRp1379
sg53
F78946.637622174094
sg54
g38
(g40
S'J\x85\xa3\x041\x00\xc6?'
tRp1380
sg56
F142509.15565029113
sg57
g38
(g40
S'\xf1\xe0\x0b\xb0/\xa0\xb3?'
tRp1381
stRp1382
ss(I27
I150
I2500
tp1383
(dp1384
g4
(g5
((dp1385
I0
F0.21250220009691292
sI2
F0.2380711288615775
sg7
F0.46258093695340152
sI4
F0.035673077549885163
sI5
F0.074998859209008117
sI6
F0.074127512184734262
sI7
F0.096534820200475005
sI8
F0.054455929614282271
sI9
F0.14964352997672786
sI10
F0.063992942306396905
sg8
F0.53741906304659848
sg9
F0.74497211471536173
sg10
F0.25502788528463827
sg11
F0.0041252508952760222
sg12
F0.53741906304659848
sg13
F0.46258093695340152
sg14
F0.99587474910472396
stRp1386
g5
((dp1387
I0
I97795
sg17
I450760
sI2
I109562
sg7
I200465
sI4
I16417
sI5
I34515
sI6
I34114
sI7
I44426
sI8
I25061
sI9
I68867
sI10
I29450
sg8
I232897
sg18
F1804536
sg19
F460207
sg20
I7475
sg12
I232897
sg13
I200465
stRp1388
tp1389
sg23
(g5
((dp1390
I0
F0.2546572364378597
sI2
F0.19011212759205828
sg7
F0.46258093695340152
sI4
F0.028413006723544066
sI5
F0.059831018312836805
sI6
F0.067857384595071749
sI7
F0.098805809955669344
sI8
F0.064581565786917927
sI9
F0.15905433474047734
sI10
F0.076687515855564881
sg8
F0.53741906304659848
sg9
F0.68035498157207264
sg10
F0.31964501842792736
sg11
F0.0061833633974553454
sg12
F0.53741906304659848
sg13
F0.46258093695340152
sg14
F0.9938166366025446
stRp1391
g5
((dp1392
I0
I97795
sI2
F73008.000000039581
sg7
I200465
sI4
F10911.333333372702
sI5
F22976.666666732057
sI6
F26059.000008406812
sI7
F37944.000020484535
sI8
F24801.000413246769
sI9
F61081.000027818067
sI10
I29450
sg8
I232897
sg18
F1201414.0009402011
sg19
F384026.00047010049
sg20
I7475
sg12
I232897
sg13
I200465
stRp1393
tp1394
sg29
(g5
((dp1395
I0
F0.26391280177462095
sI2
F0.1705212139530114
sg7
F0.46258093695340152
sI4
F0.025315874977736279
sI5
F0.056290783089286971
sI6
F0.070323674026738059
sI7
F0.10239692571743154
sI8
F0.066928793873023931
sI9
F0.16483519449047113
sI10
F0.079474738097679715
sg8
F0.53741906304659848
sg9
F0.68449132295368664
sg10
F0.31550867704631336
sg11
F0.0063242785457628178
sg12
F0.53741906304659848
sg13
F0.46258093695340152
sg14
F0.99367572145423722
stRp1396
g5
((dp1397
I0
I97795
sI2
I63188
sg7
I200465
sI4
I9381
sI5
I20859
sI6
I26059
sI7
I37944
sI8
I24801
sI9
I61081
sI10
I29450
sg8
I232897
sg18
F1174478
sg19
F370558
sg20
I7475
sg12
I232897
sg13
I200465
stRp1398
tp1399
sg35
g5
((dp1400
g37
g38
(g40
S'\x00\x03\x18\xcfT\xc1\xc2@'
tRp1401
sg42
g38
(g40
S'\x0b\xd7\xa3p\xebA%A'
tRp1402
sg44
g38
(g40
S'P\x0ey\xe3\xb6\x06\xa9?'
tRp1403
sg46
g38
(g40
S'\xd8,\t \x8f\xb4-A'
tRp1404
sg48
F27480.46045214991
sg49
g38
(g40
S'\xcc\xcc\xcc\xcc\x89i-A'
tRp1405
sg51
g38
(g40
S'b\xeb\xbc\xd6\n?\xd6?'
tRp1406
sg53
F34047.680929288792
sg54
g38
(g40
S'$\xac\xc7R\xd7\x9c\xb6?'
tRp1407
sg56
F61528.141381438705
sg57
g38
(g40
S'\xf8I\x16\xc2\xf72\xa4?'
tRp1408
stRp1409
ss(I15
I150
I100
tp1410
(dp1411
g4
(g5
((dp1412
I0
F0.078612441457412752
sg10
F0.32085883841170926
sg7
F0.48814759197683144
sI7
F0.83645119466567885
sI9
F0.051438097002090337
sI10
F0.033498266874818085
sg11
F0.99338252268435623
sg8
F0.51185240802316856
sg12
F0.51185240802316856
sg9
F0.67914116158829074
sg13
F0.48814759197683144
sg14
F0.0066174773156437716
stRp1413
g5
((dp1414
I0
I2971
sg17
I32878
sg7
I4551
sI7
I31612
sI9
I1944
sI10
I1266
sg18
F117787
sg8
I4772
sg19
F37793
sg20
I17681594
sg12
I4772
sg13
I4551
stRp1415
tp1416
sg23
(g5
((dp1417
I0
F0.078612441457412752
sg10
F0.44510004828698962
sg7
F0.48814759197683144
sI7
F0.83645119466567885
sI9
F0.051438097002090337
sI10
F0.033498266874818085
sg11
F0.99522083777544745
sg8
F0.51185240802316856
sg12
F0.51185240802316856
sg9
F0.55489995171301043
sg13
F0.48814759197683144
sg14
F0.0047791622245525467
stRp1418
g5
((dp1419
I0
I2971
sg18
F84909
sg7
I4551
sI7
I31612
sI9
I1944
sI10
I1266
sg8
I4772
sg19
F37793
sg20
I17681594
sg12
I4772
sg13
I4551
stRp1420
tp1421
sg29
(g5
((dp1422
I0
F0.078612441457412752
sg10
F0.44510004828698962
sg7
F0.48814759197683144
sI7
F0.83645119466567885
sI9
F0.051438097002090337
sI10
F0.033498266874818085
sg11
F0.99522083777544745
sg8
F0.51185240802316856
sg12
F0.51185240802316856
sg9
F0.55489995171301043
sg13
F0.48814759197683144
sg14
F0.0047791622245525467
stRp1423
g5
((dp1424
I0
I2971
sg18
F84909
sg7
I4551
sI7
I31612
sI9
I1944
sI10
I1266
sg8
I4772
sg19
F37793
sg20
I17681594
sg12
I4772
sg13
I4551
stRp1425
tp1426
sg35
g5
((dp1427
g37
g38
(g40
S'\x80\xf35\x19xB\x08A'
tRp1428
sg42
g38
(g40
S'\xcd\xcc\xcc$\x1d\xdbpA'
tRp1429
sg44
g38
(g40
S'\xa4\xf6\xfaC\x08c\xb5?'
tRp1430
sg46
g38
(g40
S'\xe7k2\xa0s\xfbrA'
tRp1431
sg48
F1513278.6803606919
sg49
g38
(g40
S'\x00\x00\x00\xb0\xee\xcarA'
tRp1432
sg51
g38
(g40
S'\xa5\xc0\x9a\xeeX\xc8\xd0?'
tRp1433
sg53
F1476586.7257842976
sg54
g38
(g40
S'\x08<\xa5\xaa\x0e\xa7\xc5?'
tRp1434
sg56
F2989865.4061449892
sg57
g38
(g40
S'l\x81O\x11\x15\xeb\xb5?'
tRp1435
stRp1436
ss.