(dp1
(I33
I150
I3666
tp2
(dp3
S'basic_analysis'
p4
(ccollections
Counter
p5
((dtRp6
g5
((dp7
S'total_reactions'
p8
F0
sS'total_frags'
p9
F0
sS'unreacted_precursors'
p10
F0
sS'ETnoD'
p11
I0
sS'PTR_precursor'
p12
I0
sS'ETnoD_precursor'
p13
I0
sS'PTR'
p14
I0
stRp15
tp16
sS'advanced_analysis'
p17
(g5
((dtRp18
g5
((dp19
g8
F0
sg9
F0
sg10
F0
sg11
I0
sg12
I0
sg13
I0
sg14
I0
stRp20
tp21
sS'intermediate_analysis'
p22
(g5
((dtRp23
g5
((dp24
g8
F0
sg9
F0
sg10
F0
sg11
I0
sg12
I0
sg13
I0
sg14
I0
stRp25
tp26
sS'summary'
p27
g5
((dp28
S'intensity_trimed_out'
p29
cnumpy.core.multiarray
scalar
p30
(cnumpy
dtype
p31
(S'f8'
I0
I1
tRp32
(I3
S'<'
NNNI-1
I-1
I0
tbS'\x00BC\xffL-\xdc@'
tRp33
sS'intensity_within_tolerance'
p34
g30
(g32
S'2333\xf0\x98"A'
tRp35
sS'underestimates/intensity_within_tolerance'
p36
g30
(g32
S'1N1\x89i\xb7\xa1?'
tRp37
sS'intensity_original'
p38
g30
(g32
S'\xa9\xb3\x93\x01\x16\x8f(A'
tRp39
sS'overestimates'
p40
F27373.643948008681
sS'intensity_after_trim'
p41
g30
(g32
S"\x99\x99\x99\x99\xab\xad'A"
tRp42
sS'L1_fit_error_and_unused_intensity/original_total_intensity'
p43
g30
(g32
S'\xdd\x111<\xb8c\xd3?'
tRp44
sS'underestimates'
p45
F21086.736133374241
sS'L1_error/intensity_within_tolerance'
p46
g30
(g32
S'\xeb[\x99\x8e\x84[\xb4?'
tRp47
sS'L1_error'
p48
F48460.380081382915
sS'L1_error_value_error/original_total_intensity'
p49
g30
(g32
S'\x00\x00\x00\x00\x00\x00\x00\x00'
tRp50
sS'L1_error_value_error/intensity_within_tolerance'
p51
g30
(g32
S'\x00\x00\x00\x00\x00\x00\x00\x00'
tRp52
sS'overestimates/intensity_within_tolerance'
p53
g30
(g32
S'\xa6i\x01\x94\x9f\xff\xa6?'
tRp54
stRp55
ss(I24
I150
I2000
tp56
(dp57
g4
(g5
((dtRp58
g5
((dp59
g8
F0
sg9
F0
sg10
F0
sg11
I0
sg12
I0
sg13
I0
sg14
I0
stRp60
tp61
sg17
(g5
((dtRp62
g5
((dp63
g8
F0
sg9
F0
sg10
F0
sg11
I0
sg12
I0
sg13
I0
sg14
I0
stRp64
tp65
sg22
(g5
((dtRp66
g5
((dp67
g8
F0
sg9
F0
sg10
F0
sg11
I0
sg12
I0
sg13
I0
sg14
I0
stRp68
tp69
sg27
g5
((dp70
g29
g30
(g32
S'\xd0H.\xff\xbd\xb0\xcc@'
tRp71
sg34
g30
(g32
S'\x99\x99\x99\x99\xb1A\x00A'
tRp72
sg36
g30
(g32
S'\xe0\x03\xef\x11\xd4S\xb0?'
tRp73
sg38
g30
(g32
S"'~\x8cy\xfd\xd3\x07A"
tRp74
sg40
F3886.3858450162884
sg41
g30
(g32
S'\x9a\x99\x99\x99\xf1\x08\x06A'
tRp75
sg43
g30
(g32
S'Th\xcc\xa43e\xd8?'
tRp76
sg45
F8493.7332630453329
sg46
g30
(g32
S'\x05M\x9f\xecX\xcc\xb7?'
tRp77
sg48
F12380.119108061625
sg49
g30
(g32
S'\x00\x00\x00\x00\x00\x00\x00\x00'
tRp78
sg51
g30
(g32
S'\x00\x00\x00\x00\x00\x00\x00\x00'
tRp79
sg53
g30
(g32
S'\x8e$\xc1j\x13\xe2\x9d?'
tRp80
stRp81
ss(I21
I150
I1750
tp82
(dp83
g4
(g5
((dtRp84
g5
((dp85
g8
F0
sg9
F0
sg10
F0
sg11
I0
sg12
I0
sg13
I0
sg14
I0
stRp86
tp87
sg17
(g5
((dtRp88
g5
((dp89
g8
F0
sg9
F0
sg10
F0
sg11
I0
sg12
I0
sg13
I0
sg14
I0
stRp90
tp91
sg22
(g5
((dtRp92
g5
((dp93
g8
F0
sg9
F0
sg10
F0
sg11
I0
sg12
I0
sg13
I0
sg14
I0
stRp94
tp95
sg27
g5
((dp96
g29
g30
(g32
S'`\rO\xaf\xe4\x7f\xc7@'
tRp97
sg34
g30
(g32
S'\x99\x99\x99\x99\xb9X\xf8@'
tRp98
sg36
g30
(g32
S'\xb6`m\xba\x01\xbe\xb0?'
tRp99
sg38
g30
(g32
S'=W[\xb1\xa8(\x02A'
tRp100
sg40
F6483.2361893909356
sg41
g30
(g32
S'gfff\xaa\xb0\x00A'
tRp101
sg43
g30
(g32
S'gt\xdan\xe2\xb0\xda?'
tRp102
sg45
F6521.8509342112575
sg46
g30
(g32
S'!\xae\xb5\x82Q\xb1\xc0?'
tRp103
sg48
F13005.087123602192
sg49
g30
(g32
S'\x00\x00\x00\x00\x00\x00\x00\x00'
tRp104
sg51
g30
(g32
S'\x00\x00\x00\x00\x00\x00\x00\x00'
tRp105
sg53
g30
(g32
S'\x8c\xfb\xfdJ\xa1\xa4\xb0?'
tRp106
stRp107
ss(I0
I0
I300
tp108
(dp109
g4
(g5
((dtRp110
g5
((dp111
g8
F0
sg9
F0
sg10
F0
sg11
I0
sg12
I0
sg13
I0
sg14
I0
stRp112
tp113
sg17
(g5
((dtRp114
g5
((dp115
g8
F0
sg9
F0
sg10
F0
sg11
I0
sg12
I0
sg13
I0
sg14
I0
stRp116
tp117
sg22
(g5
((dtRp118
g5
((dp119
g8
F0
sg9
F0
sg10
F0
sg11
I0
sg12
I0
sg13
I0
sg14
I0
stRp120
tp121
sg27
g5
((dp122
g29
g30
(g32
S'\xf0\x18s\xd7\xa2r\xbe@'
tRp123
sg34
g30
(g32
S'3333S\x96\xd3@'
tRp124
sg36
g30
(g32
S'!P\x80-\xc8]\xa1?'
tRp125
sg38
g30
(g32
S'\xd5_vO\x82\x9d\xde@'
tRp126
sg40
F1692.9607657564711
sg41
g30
(g32
S'\x99\x99\x99\x99\xd9\x00\xd7@'
tRp127
sg43
g30
(g32
S'\x04+zO\x10\xe6\xdb?'
tRp128
sg45
F680.31602623961794
sg46
g30
(g32
S'\xb1!\x89a\x89J\xbe?'
tRp129
sg48
F2373.2767919960897
sg49
g30
(g32
S'\x00\x00\x00\x00\x00\x00\x00\x00'
tRp130
sg51
g30
(g32
S'\x00\x00\x00\x00\x00\x00\x00\x00'
tRp131
sg53
g30
(g32
S'\x9e\xf9\xc8J\xa5\x9b\xb5?'
tRp132
stRp133
ss(I47
I150
I6000
tp134
(dp135
g4
(g5
((dtRp136
g5
((dp137
g8
F0
sg9
F0
sg10
F0
sg11
I0
sg12
I0
sg13
I0
sg14
I0
stRp138
tp139
sg17
(g5
((dtRp140
g5
((dp141
g8
F0
sg9
F0
sg10
F0
sg11
I0
sg12
I0
sg13
I0
sg14
I0
stRp142
tp143
sg22
(g5
((dtRp144
g5
((dp145
g8
F0
sg9
F0
sg10
F0
sg11
I0
sg12
I0
sg13
I0
sg14
I0
stRp146
tp147
sg27
g5
((dp148
g29
g30
(g32
S'\x80\x91\xed|\xefU\xc2@'
tRp149
sg34
g30
(g32
S'\xcc\xcc\xcc\xcc\xb4\xac\xfd@'
tRp150
sg36
g30
(g32
S'X\x1e\ra=\xa2\xa5?'
tRp151
sg38
g30
(g32
S'\xb2rh\x91\xc8L\x04A'
tRp152
sg40
F5056.8194539732904
sg41
g30
(g32
S"\x9a\x99\x99\x99i'\x03A"
tRp153
sg43
g30
(g32
S':\x96\x16;\x0f%\xd5?'
tRp154
sg45
F5135.7886492926509
sg46
g30
(g32
S'\xa9\xe5\xd1;\xa9w\xb5?'
tRp155
sg48
F10192.608103265942
sg49
g30
(g32
S'\x00\x00\x00\x00\x00\x00\x00\x00'
tRp156
sg51
g30
(g32
S'\x00\x00\x00\x00\x00\x00\x00\x00'
tRp157
sg53
g30
(g32
S'\xf8\xac\x96\x16\x15M\xa5?'
tRp158
stRp159
ss(I37
I150
I4250
tp160
(dp161
g4
(g5
((dtRp162
g5
((dp163
g8
F0
sg9
F0
sg10
F0
sg11
I0
sg12
I0
sg13
I0
sg14
I0
stRp164
tp165
sg17
(g5
((dtRp166
g5
((dp167
g8
F0
sg9
F0
sg10
F0
sg11
I0
sg12
I0
sg13
I0
sg14
I0
stRp168
tp169
sg22
(g5
((dtRp170
g5
((dp171
g8
F0
sg9
F0
sg10
F0
sg11
I0
sg12
I0
sg13
I0
sg14
I0
stRp172
tp173
sg27
g5
((dp174
g29
g30
(g32
S'\x90\x99\x99\x99\xcd@\xd4@'
tRp175
sg34
g30
(g32
S'4333\xad\xbe\x12A'
tRp176
sg36
g30
(g32
S'l\x13\x0bM\xb0\xdb\xa7?'
tRp177
sg38
g30
(g32
S'233s\xe6J\x1aA'
tRp178
sg40
F15687.899726889591
sg41
g30
(g32
S'\x99\x99\x99\x99\xd9\x06\x19A'
tRp179
sg43
g30
(g32
S'\xf9-\xbe]G\xd4\xd6?'
tRp180
sg45
F14310.948485637537
sg46
g30
(g32
S'\x04\xa3\x07\xf0\x84\x01\xb9?'
tRp181
sg48
F29998.848212527118
sg49
g30
(g32
S'\x00\x00\x00\x00\x00\x00\x00\x00'
tRp182
sg51
g30
(g32
S'\x00\x00\x00\x00\x00\x00\x00\x00'
tRp183
sg53
g30
(g32
S"\xa12\x04\x93Y'\xaa?"
tRp184
stRp185
ss(I11
I100
I300
tp186
(dp187
g4
(g5
((dtRp188
g5
((dp189
g8
F0
sg9
F0
sg10
F0
sg11
I0
sg12
I0
sg13
I0
sg14
I0
stRp190
tp191
sg17
(g5
((dtRp192
g5
((dp193
g8
F0
sg9
F0
sg10
F0
sg11
I0
sg12
I0
sg13
I0
sg14
I0
stRp194
tp195
sg22
(g5
((dtRp196
g5
((dp197
g8
F0
sg9
F0
sg10
F0
sg11
I0
sg12
I0
sg13
I0
sg14
I0
stRp198
tp199
sg27
g5
((dp200
g29
g30
(g32
S'\xc0\xf17\xa1\xd4I\xe3@'
tRp201
sg34
g30
(g32
S'\xcd\xcc\xcc\xccT\xc77A'
tRp202
sg36
g30
(g32
S']r\xe14_\x1f\xbb?'
tRp203
sg38
g30
(g32
S'(Y\xa3\xbe\x17\x19>A'
tRp204
sg40
F137970.15559908366
sg41
g30
(g32
S'\x9a\x99\x99\x19\xc9~=A'
tRp205
sg43
g30
(g32
S'\xef\xb4\xc8\x9e`E\xd7?'
tRp206
sg45
F165103.92480924376
sg46
g30
(g32
S'#BL\x97\xd2\xe4\xc8?'
tRp207
sg48
F303074.0804083274
sg49
g30
(g32
S'\x00\x00\x00\x00\x00\x00\x00\x00'
tRp208
sg51
g30
(g32
S'\x00\x00\x00\x00\x00\x00\x00\x00'
tRp209
sg53
g30
(g32
S'\xea\x11\xb7\xf9E\xaa\xb6?'
tRp210
stRp211
ss(I49
I150
I75
tp212
(dp213
g4
(g5
((dtRp214
g5
((dp215
g8
F0
sg9
F0
sg10
F0
sg11
I0
sg12
I0
sg13
I0
sg14
I0
stRp216
tp217
sg17
(g5
((dtRp218
g5
((dp219
g8
F0
sg9
F0
sg10
F0
sg11
I0
sg12
I0
sg13
I0
sg14
I0
stRp220
tp221
sg22
(g5
((dtRp222
g5
((dp223
g8
F0
sg9
F0
sg10
F0
sg11
I0
sg12
I0
sg13
I0
sg14
I0
stRp224
tp225
sg27
g5
((dp226
g29
g30
(g32
S'\x00`\x11\xfc> \xe2@'
tRp227
sg34
g30
(g32
S'\xce\xcc\xcc\xdc\x94\xf5qA'
tRp228
sg36
g30
(g32
S'\xdd\xea\xa6\xf6\x17\x01\xb7?'
tRp229
sg38
g30
(g32
S'\xe4;\xb1Jz\x0ftA'
tRp230
sg40
F1640298.5024584387
sg41
g30
(g32
S'433+j\x06tA'
tRp231
sg43
g30
(g32
S'd\xd0/O\xc4\xd7\xd0?'
tRp232
sg45
F1692224.2366540967
sg46
g30
(g32
S'"^\xfe\x8f\xbd\xa6\xc6?'
tRp233
sg48
F3332522.739112536
sg49
g30
(g32
S'\x00\x00\x00\x00\x00\x00\x00\x00'
tRp234
sg51
g30
(g32
S'\x00\x00\x00\x00\x00\x00\x00\x00'
tRp235
sg53
g30
(g32
S'f\xd1U)cL\xb6?'
tRp236
stRp237
ss(I2
I20
I300
tp238
(dp239
g4
(g5
((dtRp240
g5
((dp241
g8
F0
sg9
F0
sg10
F0
sg11
I0
sg12
I0
sg13
I0
sg14
I0
stRp242
tp243
sg17
(g5
((dtRp244
g5
((dp245
g8
F0
sg9
F0
sg10
F0
sg11
I0
sg12
I0
sg13
I0
sg14
I0
stRp246
tp247
sg22
(g5
((dtRp248
g5
((dp249
g8
F0
sg9
F0
sg10
F0
sg11
I0
sg12
I0
sg13
I0
sg14
I0
stRp250
tp251
sg27
g5
((dp252
g29
g30
(g32
S'hK\xc8\x07\xdd!\xc6@'
tRp253
sg34
g30
(g32
S'\x00\x00\x00\x00\xe0\xe7\xe2@'
tRp254
sg36
g30
(g32
S'Fh\xdcs\x86\xfe\xa1?'
tRp255
sg38
g30
(g32
S'\xd9\x12\xf2A\xc7\x9e\xeb@'
tRp256
sg40
F1957.7276769177499
sg41
g30
(g32
S'\xff\xff\xff\xffO\x16\xe6@'
tRp257
sg43
g30
(g32
S'k\xf8\x0e\x93\x80\xf2\xd7?'
tRp258
sg45
F1360.7791856979889
sg46
g30
(g32
S'U\x00\x8ar\xec\xf0\xb5?'
tRp259
sg48
F3318.5068626157376
sg49
g30
(g32
S'\x00\x00\x00\x00\x00\x00\x00\x00'
tRp260
sg51
g30
(g32
S'\x00\x00\x00\x00\x00\x00\x00\x00'
tRp261
sg53
g30
(g32
S'i\x987qR\xe3\xa9?'
tRp262
stRp263
ss(I43
I150
I5250
tp264
(dp265
g4
(g5
((dtRp266
g5
((dp267
g8
F0
sg9
F0
sg10
F0
sg11
I0
sg12
I0
sg13
I0
sg14
I0
stRp268
tp269
sg17
(g5
((dtRp270
g5
((dp271
g8
F0
sg9
F0
sg10
F0
sg11
I0
sg12
I0
sg13
I0
sg14
I0
stRp272
tp273
sg22
(g5
((dtRp274
g5
((dp275
g8
F0
sg9
F0
sg10
F0
sg11
I0
sg12
I0
sg13
I0
sg14
I0
stRp276
tp277
sg27
g5
((dp278
g29
g30
(g32
S'`\xbf\xec\x9e\xc4\xc6\xcc@'
tRp279
sg34
g30
(g32
S'1333\x0f#\x0cA'
tRp280
sg36
g30
(g32
S'\xb58\x8b\x91\x8c\x88\xa0?'
tRp281
sg38
g30
(g32
S'.\x99*X\x9b\x8a\x12A'
tRp282
sg40
F8571.835338576162
sg41
g30
(g32
S'3333e\xa4\x11A'
tRp283
sg43
g30
(g32
S'mx,\x06=\xd0\xd2?'
tRp284
sg45
F7443.1890734407225
sg46
g30
(g32
S'g-\xb1,s\xc9\xb1?'
tRp285
sg48
F16015.024412016885
sg49
g30
(g32
S'\x00\x00\x00\x00\x00\x00\x00\x00'
tRp286
sg51
g30
(g32
S'\x00\x00\x00\x00\x00\x00\x00\x00'
tRp287
sg53
g30
(g32
S'\x18"\xd7\xc7Y\n\xa3?'
tRp288
stRp289
ss(I31
I150
I3000
tp290
(dp291
g4
(g5
((dtRp292
g5
((dp293
g8
F0
sg9
F0
sg10
F0
sg11
I0
sg12
I0
sg13
I0
sg14
I0
stRp294
tp295
sg17
(g5
((dtRp296
g5
((dp297
g8
F0
sg9
F0
sg10
F0
sg11
I0
sg12
I0
sg13
I0
sg14
I0
stRp298
tp299
sg22
(g5
((dtRp300
g5
((dp301
g8
F0
sg9
F0
sg10
F0
sg11
I0
sg12
I0
sg13
I0
sg14
I0
stRp302
tp303
sg27
g5
((dp304
g29
g30
(g32
S'@^K\xc8i\xb4\xe2@'
tRp305
sg34
g30
(g32
S'\xff\xff\xff\xff\x84\xaa.A'
tRp306
sg36
g30
(g32
S'y8\x13Z\xb8\xa1\xa4?'
tRp307
sg38
g30
(g32
S'\xf2ZBN\xce\x944A'
tRp308
sg40
F45451.069075862601
sg41
g30
(g32
S'\x00\x00\x00\x00+\xff3A'
tRp309
sg43
g30
(g32
S'\xea\n\x83\xe3\xdfe\xd4?'
tRp310
sg45
F40492.428706529412
sg46
g30
(g32
S'\xc7\xf8i\xa3\x1d\xe5\xb5?'
tRp311
sg48
F85943.49778239202
sg49
g30
(g32
S'\x00\x00\x00\x00\x00\x00\x00\x00'
tRp312
sg51
g30
(g32
S'\x00\x00\x00\x00\x00\x00\x00\x00'
tRp313
sg53
g30
(g32
S'\x14\xb9\xc0\xec\x82(\xa7?'
tRp314
stRp315
ss(I18
I150
I15
tp316
(dp317
g4
(g5
((dtRp318
g5
((dp319
g8
F0
sg9
F0
sg10
F0
sg11
I0
sg12
I0
sg13
I0
sg14
I0
stRp320
tp321
sg17
(g5
((dtRp322
g5
((dp323
g8
F0
sg9
F0
sg10
F0
sg11
I0
sg12
I0
sg13
I0
sg14
I0
stRp324
tp325
sg22
(g5
((dtRp326
g5
((dp327
g8
F0
sg9
F0
sg10
F0
sg11
I0
sg12
I0
sg13
I0
sg14
I0
stRp328
tp329
sg27
g5
((dp330
g29
g30
(g32
S'\x00\x19\xce\xfc\x16k\xe6@'
tRp331
sg34
g30
(g32
S'\x02\x00\x00\x10\x1ebeA'
tRp332
sg36
g30
(g32
S'2\xb8\x97\x1c\x99\xca\xb4?'
tRp333
sg38
g30
(g32
S'\xe6\x9a\xc9\xe3\x04\xf8gA'
tRp334
sg40
F1386872.24100545
sg41
g30
(g32
S'\xcd\xcc\xcc\xcc\x99\xe1gA'
tRp335
sg43
g30
(g32
S'\xd9\xa6\xb73\xa6\x9a\xd2?'
tRp336
sg45
F910516.4687495759
sg46
g30
(g32
S'1\x84\x0f\x97\xe9:\xca?'
tRp337
sg48
F2297388.7097550263
sg49
g30
(g32
S'\x00\x00\x00\x00\x00\x00\x00\x00'
tRp338
sg51
g30
(g32
S'\x00\x00\x00\x00\x00\x00\x00\x00'
tRp339
sg53
g30
(g32
S'/P\x87\x11:\xab\xbf?'
tRp340
stRp341
ss(I20
I150
I1500
tp342
(dp343
g4
(g5
((dtRp344
g5
((dp345
g8
F0
sg9
F0
sg10
F0
sg11
I0
sg12
I0
sg13
I0
sg14
I0
stRp346
tp347
sg17
(g5
((dtRp348
g5
((dp349
g8
F0
sg9
F0
sg10
F0
sg11
I0
sg12
I0
sg13
I0
sg14
I0
stRp350
tp351
sg22
(g5
((dtRp352
g5
((dp353
g8
F0
sg9
F0
sg10
F0
sg11
I0
sg12
I0
sg13
I0
sg14
I0
stRp354
tp355
sg27
g5
((dp356
g29
g30
(g32
S'\x00\xaeG\xe1zM\x97@'
tRp357
sg34
g30
(g32
S'ffff\xe6\x0c\xb8@'
tRp358
sg36
g30
(g32
S')\xd0\x0e\x80t\x8c\xad?'
tRp359
sg38
g30
(g32
S'\xadG\xe1z\x84O\xd0@'
tRp360
sg40
F805.92131312066203
sg41
g30
(g32
S'\x9a\x99\x99\x99Y\xb5\xcd@'
tRp361
sg43
g30
(g32
S'\xa5[\x07&\xbem\xe6?'
tRp362
sg45
F355.3283193660273
sg46
g30
(g32
S'd<\x06\xe4Z$\xc8?'
tRp363
sg48
F1161.2496324866897
sg49
g30
(g32
S'\x00\x00\x00\x00\x00\x00\x00\x00'
tRp364
sg51
g30
(g32
S'\x00\x00\x00\x00\x00\x00\x00\x00'
tRp365
sg53
g30
(g32
S'X\x88\x02\xc4=\xc1\xc0?'
tRp366
stRp367
ss(I23
I150
I200
tp368
(dp369
g4
(g5
((dtRp370
g5
((dp371
g8
F0
sg9
F0
sg10
F0
sg11
I0
sg12
I0
sg13
I0
sg14
I0
stRp372
tp373
sg17
(g5
((dtRp374
g5
((dp375
g8
F0
sg9
F0
sg10
F0
sg11
I0
sg12
I0
sg13
I0
sg14
I0
stRp376
tp377
sg22
(g5
((dtRp378
g5
((dp379
g8
F0
sg9
F0
sg10
F0
sg11
I0
sg12
I0
sg13
I0
sg14
I0
stRp380
tp381
sg27
g5
((dp382
g29
g30
(g32
S'\x00f9\xb4\xa0\x16\xd7@'
tRp383
sg34
g30
(g32
S'\xce\xcc\xcc\x0cy\xbdaA'
tRp384
sg36
g30
(g32
S'XL\xb0\x02\x18D\xb4?'
tRp385
sg38
g30
(g32
S'\xe7O\x8d\xd3PIdA'
tRp386
sg40
F996500.84850493411
sg41
g30
(g32
S'433\x83\xc5=dA'
tRp387
sg43
g30
(g32
S'X\x0evZ\xbau\xd2?'
tRp388
sg45
F736299.59697823483
sg46
g30
(g32
S's\x1aG"\xce\xd8\xc7?'
tRp389
sg48
F1732800.4454831691
sg49
g30
(g32
S'\x00\x00\x00\x00\x00\x00\x00\x00'
tRp390
sg51
g30
(g32
S'\x00\x00\x00\x00\x00\x00\x00\x00'
tRp391
sg53
g30
(g32
S'\x8e\xe8\xddA\x84m\xbb?'
tRp392
stRp393
ss(I40
I150
I50
tp394
(dp395
g4
(g5
((dtRp396
g5
((dp397
g8
F0
sg9
F0
sg10
F0
sg11
I0
sg12
I0
sg13
I0
sg14
I0
stRp398
tp399
sg17
(g5
((dtRp400
g5
((dp401
g8
F0
sg9
F0
sg10
F0
sg11
I0
sg12
I0
sg13
I0
sg14
I0
stRp402
tp403
sg22
(g5
((dtRp404
g5
((dp405
g8
F0
sg9
F0
sg10
F0
sg11
I0
sg12
I0
sg13
I0
sg14
I0
stRp406
tp407
sg27
g5
((dp408
g29
g30
(g32
S'\x00\xe4T\x87U\x0b\xe3@'
tRp409
sg34
g30
(g32
S'\xff\xff\xffW\xd6\xd5pA'
tRp410
sg36
g30
(g32
S'\xabv\xf7\xc5\xec\x1f\xb6?'
tRp411
sg38
g30
(g32
S'\nD]\x14\x1b\xdbrA'
tRp412
sg40
F1495305.5378222915
sg41
g30
(g32
S'\x98\x99\x99i\x95\xd1rA'
tRp413
sg43
g30
(g32
S'\x9e\xfe)0\x08\xa3\xd0?'
tRp414
sg45
F1525662.1667682575
sg46
g30
(g32
S"\x10\x1f'\x8c\x93\xe7\xc5?"
tRp415
sg48
F3020967.7045905488
sg49
g30
(g32
S'\x00\x00\x00\x00\x00\x00\x00\x00'
tRp416
sg51
g30
(g32
S'\x00\x00\x00\x00\x00\x00\x00\x00'
tRp417
sg53
g30
(g32
S'v\xc7VR:\xaf\xb5?'
tRp418
stRp419
ss(I16
I150
I1000
tp420
(dp421
g4
(g5
((dtRp422
g5
((dp423
g8
F0
sg9
F0
sg10
F0
sg11
I0
sg12
I0
sg13
I0
sg14
I0
stRp424
tp425
sg17
(g5
((dtRp426
g5
((dp427
g8
F0
sg9
F0
sg10
F0
sg11
I0
sg12
I0
sg13
I0
sg14
I0
stRp428
tp429
sg22
(g5
((dtRp430
g5
((dp431
g8
F0
sg9
F0
sg10
F0
sg11
I0
sg12
I0
sg13
I0
sg14
I0
stRp432
tp433
sg27
g5
((dp434
g29
g30
(g32
S'\x00\xe1\xbe\x0e\x10|\xd7@'
tRp435
sg34
g30
(g32
S'hfff\xa1\xce9A'
tRp436
sg36
g30
(g32
S'\xaez\x86\xf9\t^\xce?'
tRp437
sg38
g30
(g32
S'zX\xa8\x89\xdafQA'
tRp438
sg40
F348393.43320800818
sg41
g30
(g32
S'\x99\x99\x99y^OQA'
tRp439
sg43
g30
(g32
S'\xf8\xd2\xeev\xfcd\xe9?'
tRp440
sg45
F401251.5834598199
sg46
g30
(g32
S'\x9c\xe2\x98O\xfd]\xdc?'
tRp441
sg48
F749645.01666782831
sg49
g30
(g32
S'\x00\x00\x00\x00\x00\x00\x00\x00'
tRp442
sg51
g30
(g32
S'\x00\x00\x00\x00\x00\x00\x00\x00'
tRp443
sg53
g30
(g32
S'\x85J\xab\xa5\xf0]\xca?'
tRp444
stRp445
ss(I36
I150
I4000
tp446
(dp447
g4
(g5
((dtRp448
g5
((dp449
g8
F0
sg9
F0
sg10
F0
sg11
I0
sg12
I0
sg13
I0
sg14
I0
stRp450
tp451
sg17
(g5
((dtRp452
g5
((dp453
g8
F0
sg9
F0
sg10
F0
sg11
I0
sg12
I0
sg13
I0
sg14
I0
stRp454
tp455
sg22
(g5
((dtRp456
g5
((dp457
g8
F0
sg9
F0
sg10
F0
sg11
I0
sg12
I0
sg13
I0
sg14
I0
stRp458
tp459
sg27
g5
((dp460
g29
g30
(g32
S'\xc06\x89A(N\xdd@'
tRp461
sg34
g30
(g32
S'\xff\xff\xff\xff\xab\x19"A'
tRp462
sg36
g30
(g32
S'\xd7\x7f3\x18,\x90\xa2?'
tRp463
sg38
g30
(g32
S"P\xe3\xa5\xdb\xc2\xf9'A"
tRp464
sg40
F28947.631906119452
sg41
g30
(g32
S"\x9a\x99\x99\x99Q\x0f'A"
tRp465
sg43
g30
(g32
S'\xa6\xaa\xd7\xbb\x1f\xcb\xd3?'
tRp466
sg45
F21503.912962381211
sg46
g30
(g32
S'\x9du^|\xab\xc6\xb5?'
tRp467
sg48
F50451.544868500656
sg49
g30
(g32
S'\x00\x00\x00\x00\x00\x00\x00\x00'
tRp468
sg51
g30
(g32
S'\x00\x00\x00\x00\x00\x00\x00\x00'
tRp469
sg53
g30
(g32
S'dk\x89\xe0*\xfd\xa8?'
tRp470
stRp471
ss(I22
I150
I20
tp472
(dp473
g4
(g5
((dtRp474
g5
((dp475
g8
F0
sg9
F0
sg10
F0
sg11
I0
sg12
I0
sg13
I0
sg14
I0
stRp476
tp477
sg17
(g5
((dtRp478
g5
((dp479
g8
F0
sg9
F0
sg10
F0
sg11
I0
sg12
I0
sg13
I0
sg14
I0
stRp480
tp481
sg22
(g5
((dtRp482
g5
((dp483
g8
F0
sg9
F0
sg10
F0
sg11
I0
sg12
I0
sg13
I0
sg14
I0
stRp484
tp485
sg27
g5
((dp486
g29
g30
(g32
S'\x00\xb8CQ*|\xe5@'
tRp487
sg34
g30
(g32
S'\xff\xff\xffO\x8b\x1enA'
tRp488
sg36
g30
(g32
S'\x7f+\xc9}\xe8\xa3\xb6?'
tRp489
sg38
g30
(g32
S'v;\xc2\xe6v\xbbpA'
tRp490
sg40
F1655233.1608635969
sg41
g30
(g32
S'\x9a\x99\x99\xd1\xb8\xb0pA'
tRp491
sg43
g30
(g32
S'zc\xf2G\xa3\x87\xd1?'
tRp492
sg45
F1396550.1893032182
sg46
g30
(g32
S'\x85\xe2\xbb7\xb2\xbc\xc8?'
tRp493
sg48
F3051783.3501668144
sg49
g30
(g32
S'\x00\x00\x00\x00\x00\x00\x00\x00'
tRp494
sg51
g30
(g32
S'\x00\x00\x00\x00\x00\x00\x00\x00'
tRp495
sg53
g30
(g32
S'\x8f\x99\xae\xf1{\xd5\xba?'
tRp496
stRp497
ss(I6
I40
I300
tp498
(dp499
g4
(g5
((dtRp500
g5
((dp501
g8
F0
sg9
F0
sg10
F0
sg11
I0
sg12
I0
sg13
I0
sg14
I0
stRp502
tp503
sg17
(g5
((dtRp504
g5
((dp505
g8
F0
sg9
F0
sg10
F0
sg11
I0
sg12
I0
sg13
I0
sg14
I0
stRp506
tp507
sg22
(g5
((dtRp508
g5
((dp509
g8
F0
sg9
F0
sg10
F0
sg11
I0
sg12
I0
sg13
I0
sg14
I0
stRp510
tp511
sg27
g5
((dp512
g29
g30
(g32
S'\x80\x7f+\xd9\x19\xef\xe2@'
tRp513
sg34
g30
(g32
S'1333\xce\xf9 A'
tRp514
sg36
g30
(g32
S'Ks\xdcNF\xf2\xb5?'
tRp515
sg38
g30
(g32
S'+\xeb\xc5\xd0v\xac%A'
tRp516
sg40
F36865.643789633265
sg41
g30
(g32
S'3333\x85}$A'
tRp517
sg43
g30
(g32
S'i\xb1\x93\xab\xe8}\xd5?'
tRp518
sg45
F47687.360662184583
sg46
g30
(g32
S'\n\x8e5\xb2\xcbt\xc3?'
tRp519
sg48
F84553.004451817818
sg49
g30
(g32
S'\x00\x00\x00\x00\x00\x00\x00\x00'
tRp520
sg51
g30
(g32
S'\x00\x00\x00\x00\x00\x00\x00\x00'
tRp521
sg53
g30
(g32
S'\xcd\xa8\x8e\x15Q\xf7\xb0?'
tRp522
stRp523
ss(I9
I60
I300
tp524
(dp525
g4
(g5
((dtRp526
g5
((dp527
g8
F0
sg9
F0
sg10
F0
sg11
I0
sg12
I0
sg13
I0
sg14
I0
stRp528
tp529
sg17
(g5
((dtRp530
g5
((dp531
g8
F0
sg9
F0
sg10
F0
sg11
I0
sg12
I0
sg13
I0
sg14
I0
stRp532
tp533
sg22
(g5
((dtRp534
g5
((dp535
g8
F0
sg9
F0
sg10
F0
sg11
I0
sg12
I0
sg13
I0
sg14
I0
stRp536
tp537
sg27
g5
((dp538
g29
g30
(g32
S'\x80l\xc5\xfe<}\xe7@'
tRp539
sg34
g30
(g32
S'\x9a\x99\x99\x99dn:A'
tRp540
sg36
g30
(g32
S'\x17a\x8e\xddH\x86\xbe?'
tRp541
sg38
g30
(g32
S'L\xaf\x94MM\xb5@A'
tRp542
sg40
F143739.61026178315
sg41
g30
(g32
S'\x9a\x99\x99YXW@A'
tRp543
sg43
g30
(g32
S'u\xb2\x9e\xbaf\x9d\xd7?'
tRp544
sg45
F206541.09601889277
sg46
g30
(g32
S'I\x80\x86\x80D\xe2\xc9?'
tRp545
sg48
F350280.70628067601
sg49
g30
(g32
S'\x00\x00\x00\x00\x00\x00\x00\x00'
tRp546
sg51
g30
(g32
S'\x00\x00\x00\x00\x00\x00\x00\x00'
tRp547
sg53
g30
(g32
S'w\x9f~#@>\xb5?'
tRp548
stRp549
ss(I1
I10
I300
tp550
(dp551
g4
(g5
((dtRp552
g5
((dp553
g8
F0
sg9
F0
sg10
F0
sg11
I0
sg12
I0
sg13
I0
sg14
I0
stRp554
tp555
sg17
(g5
((dtRp556
g5
((dp557
g8
F0
sg9
F0
sg10
F0
sg11
I0
sg12
I0
sg13
I0
sg14
I0
stRp558
tp559
sg22
(g5
((dtRp560
g5
((dp561
g8
F0
sg9
F0
sg10
F0
sg11
I0
sg12
I0
sg13
I0
sg14
I0
stRp562
tp563
sg27
g5
((dp564
g29
g30
(g32
S'\xe6\xcd\x19Q\xd2\x05\xc1@'
tRp565
sg34
g30
(g32
S'4333Sh\xd8@'
tRp566
sg36
g30
(g32
S'\x9e\xf2\x80\x8e\xdf\xcd\xa2?'
tRp567
sg38
g30
(g32
S'\xad\xa6y\xc77\xfc\xe2@'
tRp568
sg40
F1448.2965913781879
sg41
g30
(g32
S'gfff\x86u\xdd@'
tRp569
sg43
g30
(g32
S'\x8b\xf3\xbfpe\xc1\xda?'
tRp570
sg45
F917.92738917313716
sg46
g30
(g32
S'\xb3Dw\xb7\x93<\xb8?'
tRp571
sg48
F2366.223980551325
sg49
g30
(g32
S'\x00\x00\x00\x00\x00\x00\x00\x00'
tRp572
sg51
g30
(g32
S'\x00\x00\x00\x00\x00\x00\x00\x00'
tRp573
sg53
g30
(g32
S'\xca\x96m\xe0G\xab\xad?'
tRp574
stRp575
ss(I50
I150
I800
tp576
(dp577
g4
(g5
((dtRp578
g5
((dp579
g8
F0
sg9
F0
sg10
F0
sg11
I0
sg12
I0
sg13
I0
sg14
I0
stRp580
tp581
sg17
(g5
((dtRp582
g5
((dp583
g8
F0
sg9
F0
sg10
F0
sg11
I0
sg12
I0
sg13
I0
sg14
I0
stRp584
tp585
sg22
(g5
((dtRp586
g5
((dp587
g8
F0
sg9
F0
sg10
F0
sg11
I0
sg12
I0
sg13
I0
sg14
I0
stRp588
tp589
sg27
g5
((dp590
g29
g30
(g32
S'\x00\xf5\xbb"\x81\xbc\xe0@'
tRp591
sg34
g30
(g32
S'fff\xa6_\x93IA'
tRp592
sg36
g30
(g32
S',\xd0\x8a\r\xf3\xa1\xc6?'
tRp593
sg38
g30
(g32
S'["\x89w\x92\x1acA'
tRp594
sg40
F487798.05730106583
sg41
g30
(g32
S'fff\xf6\xd5\tcA'
tRp595
sg43
g30
(g32
S'\xfa\xdb\xd6\x95\xf5\xbd\xe8?'
tRp596
sg45
F592736.74527555658
sg46
g30
(g32
S'\x8f\xfee\xf3\x10\xa1\xd4?'
tRp597
sg48
F1080534.802576622
sg49
g30
(g32
S'\x00\x00\x00\x00\x00\x00\x00\x00'
tRp598
sg51
g30
(g32
S'\x00\x00\x00\x00\x00\x00\x00\x00'
tRp599
sg53
g30
(g32
S'\xf7,A\xd9.\xa0\xc2?'
tRp600
stRp601
ss(I5
I35
I300
tp602
(dp603
g4
(g5
((dtRp604
g5
((dp605
g8
F0
sg9
F0
sg10
F0
sg11
I0
sg12
I0
sg13
I0
sg14
I0
stRp606
tp607
sg17
(g5
((dtRp608
g5
((dp609
g8
F0
sg9
F0
sg10
F0
sg11
I0
sg12
I0
sg13
I0
sg14
I0
stRp610
tp611
sg22
(g5
((dtRp612
g5
((dp613
g8
F0
sg9
F0
sg10
F0
sg11
I0
sg12
I0
sg13
I0
sg14
I0
stRp614
tp615
sg27
g5
((dp616
g29
g30
(g32
S'P\xbc?\xdeZ8\xe2@'
tRp617
sg34
g30
(g32
S'5333\x1f\xc7\x18A'
tRp618
sg36
g30
(g32
S'\xfa3\xde\x16\x1f\x82\xb3?'
tRp619
sg38
g30
(g32
S'\xf8.\x17\xe1\x90I A'
tRp620
sg40
F19507.143844080838
sg41
g30
(g32
S'ffff\x16L\x1eA'
tRp621
sg43
g30
(g32
S'd\n\xcc@\x1e^\xd5?'
tRp622
sg45
F30935.860321795772
sg46
g30
(g32
S'\xbc\xf9\x93]@\xcf\xbf?'
tRp623
sg48
F50443.004165876599
sg49
g30
(g32
S'\x00\x00\x00\x00\x00\x00\x00\x00'
tRp624
sg51
g30
(g32
S'\x00\x00\x00\x00\x00\x00\x00\x00'
tRp625
sg53
g30
(g32
S'\x87\x8bk\x8dB\x9a\xa8?'
tRp626
stRp627
ss(I35
I150
I400
tp628
(dp629
g4
(g5
((dtRp630
g5
((dp631
g8
F0
sg9
F0
sg10
F0
sg11
I0
sg12
I0
sg13
I0
sg14
I0
stRp632
tp633
sg17
(g5
((dtRp634
g5
((dp635
g8
F0
sg9
F0
sg10
F0
sg11
I0
sg12
I0
sg13
I0
sg14
I0
stRp636
tp637
sg22
(g5
((dtRp638
g5
((dp639
g8
F0
sg9
F0
sg10
F0
sg11
I0
sg12
I0
sg13
I0
sg14
I0
stRp640
tp641
sg27
g5
((dp642
g29
g30
(g32
S'\x00z\xfa\xd0}\xf2\xde@'
tRp643
sg34
g30
(g32
S'\x9b\x99\x99\t\x01\x8dgA'
tRp644
sg36
g30
(g32
S',w~T\xa9#\xb6?'
tRp645
sg38
g30
(g32
S'=}\xe8>\xd4SnA'
tRp646
sg40
F1267023.731208211
sg41
g30
(g32
S'\x00\x00\x00\x00[DnA'
tRp647
sg43
g30
(g32
S'\xbc\xef\xa7\x0b\xdf\xb2\xd7?'
tRp648
sg45
F1067823.5570188724
sg46
g30
(g32
S'\xe6\xa0\x8erN4\xc8?'
tRp649
sg48
F2334847.2882270836
sg49
g30
(g32
S'\x00\x00\x00\x00\x00\x00\x00\x00'
tRp650
sg51
g30
(g32
S'\x00\x00\x00\x00\x00\x00\x00\x00'
tRp651
sg53
g30
(g32
S'\x9d\xca\x9e\x90\xf3D\xba?'
tRp652
stRp653
ss(I39
I150
I4750
tp654
(dp655
g4
(g5
((dtRp656
g5
((dp657
g8
F0
sg9
F0
sg10
F0
sg11
I0
sg12
I0
sg13
I0
sg14
I0
stRp658
tp659
sg17
(g5
((dtRp660
g5
((dp661
g8
F0
sg9
F0
sg10
F0
sg11
I0
sg12
I0
sg13
I0
sg14
I0
stRp662
tp663
sg22
(g5
((dtRp664
g5
((dp665
g8
F0
sg9
F0
sg10
F0
sg11
I0
sg12
I0
sg13
I0
sg14
I0
stRp666
tp667
sg27
g5
((dp668
g29
g30
(g32
S'`p=\n\x17F\xcc@'
tRp669
sg34
g30
(g32
S'\xcc\xcc\xcc\xccP\n\tA'
tRp670
sg36
g30
(g32
S'\x88\xe4\xaa2r\xde\xa3?'
tRp671
sg38
g30
(g32
S'\xb6\x1e\x85\xeb\xa5\xbf\x10A'
tRp672
sg40
F10660.10184601332
sg41
g30
(g32
S'ffff\xea\xba\x0fA'
tRp673
sg43
g30
(g32
S'2ZL\t/\x80\xd4?'
tRp674
sg45
F7960.3820357433888
sg46
g30
(g32
S'\x9e.\xf0X\xf7<\xb7?'
tRp675
sg48
F18620.483881756703
sg49
g30
(g32
S'\x00\x00\x00\x00\x00\x00\x00\x00'
tRp676
sg51
g30
(g32
S'\x00\x00\x00\x00\x00\x00\x00\x00'
tRp677
sg53
g30
(g32
S'\xb7x5\x7f|\x9b\xaa?'
tRp678
stRp679
ss(I51
I150
I900
tp680
(dp681
g4
(g5
((dtRp682
g5
((dp683
g8
F0
sg9
F0
sg10
F0
sg11
I0
sg12
I0
sg13
I0
sg14
I0
stRp684
tp685
sg17
(g5
((dtRp686
g5
((dp687
g8
F0
sg9
F0
sg10
F0
sg11
I0
sg12
I0
sg13
I0
sg14
I0
stRp688
tp689
sg22
(g5
((dtRp690
g5
((dp691
g8
F0
sg9
F0
sg10
F0
sg11
I0
sg12
I0
sg13
I0
sg14
I0
stRp692
tp693
sg27
g5
((dp694
g29
g30
(g32
S'\x80\x08K<\xd4H\xe0@'
tRp695
sg34
g30
(g32
S'fff\xe6\xedg@A'
tRp696
sg36
g30
(g32
S'^\x96\xeb/\xfb\x19\xd0?'
tRp697
sg38
g30
(g32
S'D\xc9\xab\xfbk\xff\\A'
tRp698
sg40
F418985.91289227502
sg41
g30
(g32
S'333S\xda\xde\\A'
tRp699
sg43
g30
(g32
S'\xe9\x80^\x92*\xfd\xea?'
tRp700
sg45
F541000.92508936743
sg46
g30
(g32
S'>D\xe9\xfdN\x92\xdc?'
tRp701
sg48
F959986.83798164234
sg49
g30
(g32
S'\x00\x00\x00\x00\x00\x00\x00\x00'
tRp702
sg51
g30
(g32
S'\x00\x00\x00\x00\x00\x00\x00\x00'
tRp703
sg53
g30
(g32
S'\xc2[\xfb\x9b\xa7\xf0\xc8?'
tRp704
stRp705
ss(I17
I150
I1250
tp706
(dp707
g4
(g5
((dtRp708
g5
((dp709
g8
F0
sg9
F0
sg10
F0
sg11
I0
sg12
I0
sg13
I0
sg14
I0
stRp710
tp711
sg17
(g5
((dtRp712
g5
((dp713
g8
F0
sg9
F0
sg10
F0
sg11
I0
sg12
I0
sg13
I0
sg14
I0
stRp714
tp715
sg22
(g5
((dtRp716
g5
((dp717
g8
F0
sg9
F0
sg10
F0
sg11
I0
sg12
I0
sg13
I0
sg14
I0
stRp718
tp719
sg27
g5
((dp720
g29
g30
(g32
S'\x00\xbaI\x0c"\x85\xb6@'
tRp721
sg34
g30
(g32
S'2333\xe3\xfd\xec@'
tRp722
sg36
g30
(g32
S'\x81\x95\x85c\xe2\xcc\xce?'
tRp723
sg38
g30
(g32
S'\xd0Mb\x10\xd1\xd5\x07A'
tRp724
sg40
F1607.0527060038119
sg41
g30
(g32
S'\x00\x00\x00\x00\xa8!\x07A'
tRp725
sg43
g30
(g32
S'\x13\xc3\xa4\xe3\xc6\xdf\xe8?'
tRp726
sg45
F14287.286244093239
sg46
g30
(g32
S'\x97\xd8\xfb\xaa\xe4!\xd1?'
tRp727
sg48
F15894.338950097055
sg49
g30
(g32
S'\x00\x00\x00\x00\x00\x00\x00\x00'
tRp728
sg51
g30
(g32
S'\x00\x00\x00\x00\x00\x00\x00\x00'
tRp729
sg53
g30
(g32
S'Q\xdd\x90\x937\xb7\x9b?'
tRp730
stRp731
ss(I12
I125
I300
tp732
(dp733
g4
(g5
((dtRp734
g5
((dp735
g8
F0
sg9
F0
sg10
F0
sg11
I0
sg12
I0
sg13
I0
sg14
I0
stRp736
tp737
sg17
(g5
((dtRp738
g5
((dp739
g8
F0
sg9
F0
sg10
F0
sg11
I0
sg12
I0
sg13
I0
sg14
I0
stRp740
tp741
sg22
(g5
((dtRp742
g5
((dp743
g8
F0
sg9
F0
sg10
F0
sg11
I0
sg12
I0
sg13
I0
sg14
I0
stRp744
tp745
sg27
g5
((dp746
g29
g30
(g32
S'\xc04Y\xa3,\x07\xe3@'
tRp747
sg34
g30
(g32
S'\x9a\x99\x99\x19\x8d\xce3A'
tRp748
sg36
g30
(g32
S'\xaa  \xed\x98\x1c\xbd?'
tRp749
sg38
g30
(g32
S's\x96\xe7\xb1\xe3\x01:A'
tRp750
sg40
F112881.52516209389
sg41
g30
(g32
S'\xcd\xcc\xccL\xaai9A'
tRp751
sg43
g30
(g32
S'\xaa0\x83O9\n\xd9?'
tRp752
sg45
F147612.40749641502
sg46
g30
(g32
S'\xc9<\x92\x97\xdb\xaf\xc9?'
tRp753
sg48
F260493.93265850889
sg49
g30
(g32
S'\x00\x00\x00\x00\x00\x00\x00\x00'
tRp754
sg51
g30
(g32
S'\x00\x00\x00\x00\x00\x00\x00\x00'
tRp755
sg53
g30
(g32
S'\xeaX\x04B\x1eC\xb6?'
tRp756
stRp757
ss(I3
I25
I300
tp758
(dp759
g4
(g5
((dtRp760
g5
((dp761
g8
F0
sg9
F0
sg10
F0
sg11
I0
sg12
I0
sg13
I0
sg14
I0
stRp762
tp763
sg17
(g5
((dtRp764
g5
((dp765
g8
F0
sg9
F0
sg10
F0
sg11
I0
sg12
I0
sg13
I0
sg14
I0
stRp766
tp767
sg22
(g5
((dtRp768
g5
((dp769
g8
F0
sg9
F0
sg10
F0
sg11
I0
sg12
I0
sg13
I0
sg14
I0
stRp770
tp771
sg27
g5
((dp772
g29
g30
(g32
S'\xec\xde\xe0\x0bG\xa0\xd4@'
tRp773
sg34
g30
(g32
S'\x00\x00\x00\x00\xe0\x05\xf5@'
tRp774
sg36
g30
(g32
S'\x1e\xd2\t 3\xeb\xa9?'
tRp775
sg38
g30
(g32
S'\xedj+\xf6\x8cS\xfe@'
tRp776
sg40
F4471.0587207201552
sg41
g30
(g32
S'2333{+\xf9@'
tRp777
sg43
g30
(g32
S'?\xcc\x16\xaa\xe9.\xd8?'
tRp778
sg45
F4359.1083284215283
sg46
g30
(g32
S'G\xe0;\xf2f@\xba?'
tRp779
sg48
F8830.1670491416826
sg49
g30
(g32
S'\x00\x00\x00\x00\x00\x00\x00\x00'
tRp780
sg51
g30
(g32
S'\x00\x00\x00\x00\x00\x00\x00\x00'
tRp781
sg53
g30
(g32
S's\xeem\xc4\x9a\x95\xaa?'
tRp782
stRp783
ss(I14
I150
I10
tp784
(dp785
g4
(g5
((dtRp786
g5
((dp787
g8
F0
sg9
F0
sg10
F0
sg11
I0
sg12
I0
sg13
I0
sg14
I0
stRp788
tp789
sg17
(g5
((dtRp790
g5
((dp791
g8
F0
sg9
F0
sg10
F0
sg11
I0
sg12
I0
sg13
I0
sg14
I0
stRp792
tp793
sg22
(g5
((dtRp794
g5
((dp795
g8
F0
sg9
F0
sg10
F0
sg11
I0
sg12
I0
sg13
I0
sg14
I0
stRp796
tp797
sg27
g5
((dp798
g29
g30
(g32
S'\xc0\x86 \x07\xeb\xf4\xe7@'
tRp799
sg34
g30
(g32
S'\xcc\xcc\xcc\x0c\x07\xbdGA'
tRp800
sg36
g30
(g32
S"A'\xf0\t\xcb\x15\xb4?"
tRp801
sg38
g30
(g32
S'O\xb5O_X8MA'
tRp802
sg40
F378508.02647712035
sg41
g30
(g32
S'433\xb3\x84\xd8LA'
tRp803
sg43
g30
(g32
S'\x07\xf8`M(i\xd6?'
tRp804
sg45
F244115.76869369159
sg46
g30
(g32
S'{x\\\xf2#\x9d\xc9?'
tRp805
sg48
F622623.79517081205
sg49
g30
(g32
S'\x00\x00\x00\x00\x00\x00\x00\x00'
tRp806
sg51
g30
(g32
S'\x00\x00\x00\x00\x00\x00\x00\x00'
tRp807
sg53
g30
(g32
S'\xb2\xc9\xc8\xda|$\xbf?'
tRp808
stRp809
ss(I42
I150
I5000
tp810
(dp811
g4
(g5
((dtRp812
g5
((dp813
g8
F0
sg9
F0
sg10
F0
sg11
I0
sg12
I0
sg13
I0
sg14
I0
stRp814
tp815
sg17
(g5
((dtRp816
g5
((dp817
g8
F0
sg9
F0
sg10
F0
sg11
I0
sg12
I0
sg13
I0
sg14
I0
stRp818
tp819
sg22
(g5
((dtRp820
g5
((dp821
g8
F0
sg9
F0
sg10
F0
sg11
I0
sg12
I0
sg13
I0
sg14
I0
stRp822
tp823
sg27
g5
((dp824
g29
g30
(g32
S'0\xb0rh\xf1`\xcc@'
tRp825
sg34
g30
(g32
S'\xcb\xcc\xcc\xccX\xfa\x07A'
tRp826
sg36
g30
(g32
S'gU\x8f\x9d07\xa5?'
tRp827
sg38
g30
(g32
S'\xe8\xfb\xa9\xf1\x8d*\x10A'
tRp828
sg40
F9121.0098846128712
sg41
g30
(g32
S'\xcd\xcc\xcc\xcc\x0c\x8f\x0eA'
tRp829
sg43
g30
(g32
S'\xd2\xcf\x8b\x8d7\xb5\xd4?'
tRp830
sg45
F8139.2889589387933
sg46
g30
(g32
S'\x12X/I\xbb~\xb6?'
tRp831
sg48
F17260.298843551667
sg49
g30
(g32
S'\x00\x00\x00\x00\x00\x00\x00\x00'
tRp832
sg51
g30
(g32
S'\x00\x00\x00\x00\x00\x00\x00\x00'
tRp833
sg53
g30
(g32
S'\xbaZ\xcf\xf4E\xc6\xa7?'
tRp834
stRp835
ss(I25
I150
I2250
tp836
(dp837
g4
(g5
((dtRp838
g5
((dp839
g8
F0
sg9
F0
sg10
F0
sg11
I0
sg12
I0
sg13
I0
sg14
I0
stRp840
tp841
sg17
(g5
((dtRp842
g5
((dp843
g8
F0
sg9
F0
sg10
F0
sg11
I0
sg12
I0
sg13
I0
sg14
I0
stRp844
tp845
sg22
(g5
((dtRp846
g5
((dp847
g8
F0
sg9
F0
sg10
F0
sg11
I0
sg12
I0
sg13
I0
sg14
I0
stRp848
tp849
sg27
g5
((dp850
g29
g30
(g32
S'\xa0\xac\xe7\xa4\xad\xb5\xda@'
tRp851
sg34
g30
(g32
S'\x02\x00\x00\x00\xb6\x03\x1dA'
tRp852
sg36
g30
(g32
S'v,Y%P\x1d\xa9?'
tRp853
sg38
g30
(g32
S'\xfe\xd6\xc0\x06<\xb8$A'
tRp854
sg40
F21545.728895540535
sg41
g30
(g32
S'\x99\x99\x99\x99\x8e\xe2#A'
tRp855
sg43
g30
(g32
S'?\x15{\xbd\x14k\xd7?'
tRp856
sg45
F23317.909672771653
sg46
g30
(g32
S'2 Z\x18\xff(\xb8?'
tRp857
sg48
F44863.638568312177
sg49
g30
(g32
S'\x00\x00\x00\x00\x00\x00\x00\x00'
tRp858
sg51
g30
(g32
S'\x00\x00\x00\x00\x00\x00\x00\x00'
tRp859
sg53
g30
(g32
S'\xf0\x13[\x0b\xae4\xa7?'
tRp860
stRp861
ss(I44
I150
I5500
tp862
(dp863
g4
(g5
((dtRp864
g5
((dp865
g8
F0
sg9
F0
sg10
F0
sg11
I0
sg12
I0
sg13
I0
sg14
I0
stRp866
tp867
sg17
(g5
((dtRp868
g5
((dp869
g8
F0
sg9
F0
sg10
F0
sg11
I0
sg12
I0
sg13
I0
sg14
I0
stRp870
tp871
sg22
(g5
((dtRp872
g5
((dp873
g8
F0
sg9
F0
sg10
F0
sg11
I0
sg12
I0
sg13
I0
sg14
I0
stRp874
tp875
sg27
g5
((dp876
g29
g30
(g32
S'\xd0\xd2MbP@\xc6@'
tRp877
sg34
g30
(g32
S'4333[E\xfe@'
tRp878
sg36
g30
(g32
S'\xeb\x85\x04\x96\x08\xd7\xa7?'
tRp879
sg38
g30
(g32
S'\xc7v\xbe\x9f\xe2p\x04A'
tRp880
sg40
F9575.1717739116266
sg41
g30
(g32
S'\x9a\x99\x99\x99\xdd\x0c\x03A'
tRp881
sg43
g30
(g32
S' \x05\x1c\xd0<z\xd6?'
tRp882
sg45
F5773.2642944446889
sg46
g30
(g32
S'\x04\xf8\xee\xe3\x91\xb0\xbf?'
tRp883
sg48
F15348.436068356319
sg49
g30
(g32
S'\x00\x00\x00\x00\x00\x00\x00\x00'
tRp884
sg51
g30
(g32
S'\x00\x00\x00\x00\x00\x00\x00\x00'
tRp885
sg53
g30
(g32
S'\r\xb5\xec\x98\r\xc5\xb3?'
tRp886
stRp887
ss(I48
I150
I700
tp888
(dp889
g4
(g5
((dtRp890
g5
((dp891
g8
F0
sg9
F0
sg10
F0
sg11
I0
sg12
I0
sg13
I0
sg14
I0
stRp892
tp893
sg17
(g5
((dtRp894
g5
((dp895
g8
F0
sg9
F0
sg10
F0
sg11
I0
sg12
I0
sg13
I0
sg14
I0
stRp896
tp897
sg22
(g5
((dtRp898
g5
((dp899
g8
F0
sg9
F0
sg10
F0
sg11
I0
sg12
I0
sg13
I0
sg14
I0
stRp900
tp901
sg27
g5
((dp902
g29
g30
(g32
S'\x00#\x04V\xfe\xeb\xe1@'
tRp903
sg34
g30
(g32
S'333\x93\xeb\xacYA'
tRp904
sg36
g30
(g32
S'\xf7(\xaf\xb1\xb9)\xbd?'
tRp905
sg38
g30
(g32
S'\xbd\x9d\xef\xe7\xc8\xe6hA'
tRp906
sg40
F827987.10212672327
sg41
g30
(g32
S'\x9a\x99\x99\xe9\xdc\xd4hA'
tRp907
sg43
g30
(g32
S'9\x01\x94TWi\xe3?'
tRp908
sg45
F766744.01853884908
sg46
g30
(g32
S'[\xd2_\x87\xe2S\xce?'
tRp909
sg48
F1594731.1206655721
sg49
g30
(g32
S'\x00\x00\x00\x00\x00\x00\x00\x00'
tRp910
sg51
g30
(g32
S'\x00\x00\x00\x00\x00\x00\x00\x00'
tRp911
sg53
g30
(g32
S'\xc0{\x10]\x0b~\xbf?'
tRp912
stRp913
ss(I38
I150
I4500
tp914
(dp915
g4
(g5
((dtRp916
g5
((dp917
g8
F0
sg9
F0
sg10
F0
sg11
I0
sg12
I0
sg13
I0
sg14
I0
stRp918
tp919
sg17
(g5
((dtRp920
g5
((dp921
g8
F0
sg9
F0
sg10
F0
sg11
I0
sg12
I0
sg13
I0
sg14
I0
stRp922
tp923
sg22
(g5
((dtRp924
g5
((dp925
g8
F0
sg9
F0
sg10
F0
sg11
I0
sg12
I0
sg13
I0
sg14
I0
stRp926
tp927
sg27
g5
((dp928
g29
g30
(g32
S'\x80\x9c\xa2#\xc1\x95\xcc@'
tRp929
sg34
g30
(g32
S'\x99\x99\x99\x99\xc9x\x06A'
tRp930
sg36
g30
(g32
S'\xbbC\xf2\x1f\x04!\xa6?'
tRp931
sg38
g30
(g32
S'\x94\xf6\x06\xdf\x84\xb9\rA'
tRp932
sg40
F11236.010551775376
sg41
g30
(g32
S'\xcc\xcc\xcc\xcc(\xf0\x0bA'
tRp933
sg43
g30
(g32
S'\x8b\n\xbfO\x10\xa9\xd4?'
tRp934
sg45
F7956.4535837580997
sg46
g30
(g32
S'3o\xf0\xf1\x8a\xb0\xba?'
tRp935
sg48
F19192.464135533472
sg49
g30
(g32
S'\x00\x00\x00\x00\x00\x00\x00\x00'
tRp936
sg51
g30
(g32
S'\x00\x00\x00\x00\x00\x00\x00\x00'
tRp937
sg53
g30
(g32
S'\xae\x9a\xee\xc3\x11@\xaf?'
tRp938
stRp939
ss(I8
I50
I300
tp940
(dp941
g4
(g5
((dtRp942
g5
((dp943
g8
F0
sg9
F0
sg10
F0
sg11
I0
sg12
I0
sg13
I0
sg14
I0
stRp944
tp945
sg17
(g5
((dtRp946
g5
((dp947
g8
F0
sg9
F0
sg10
F0
sg11
I0
sg12
I0
sg13
I0
sg14
I0
stRp948
tp949
sg22
(g5
((dtRp950
g5
((dp951
g8
F0
sg9
F0
sg10
F0
sg11
I0
sg12
I0
sg13
I0
sg14
I0
stRp952
tp953
sg27
g5
((dp954
g29
g30
(g32
S'@\\\x99\xf0\xb0\xc5\xe3@'
tRp955
sg34
g30
(g32
S'\xcf\xcc\xcc\xccC\xaf.A'
tRp956
sg36
g30
(g32
S'=\xcd\xca\xcf%\xc6\xb9?'
tRp957
sg38
g30
(g32
S'{d\x1e\xa1\x9f/3A'
tRp958
sg40
F85194.878842999344
sg41
g30
(g32
S'\x99\x99\x99\x19r\x912A'
tRp959
sg43
g30
(g32
S'\xabV\xb0s\x8bO\xd6?'
tRp960
sg45
F101230.85483723041
sg46
g30
(g32
S'\xe3\x13\x00\xa2\x8a\xbb\xc7?'
tRp961
sg48
F186425.73368022972
sg49
g30
(g32
S'\x00\x00\x00\x00\x00\x00\x00\x00'
tRp962
sg51
g30
(g32
S'\x00\x00\x00\x00\x00\x00\x00\x00'
tRp963
sg53
g30
(g32
S'\x8aZ5t\xef\xb0\xb5?'
tRp964
stRp965
ss(I13
I150
I300
tp966
(dp967
g4
(g5
((dtRp968
g5
((dp969
g8
F0
sg9
F0
sg10
F0
sg11
I0
sg12
I0
sg13
I0
sg14
I0
stRp970
tp971
sg17
(g5
((dtRp972
g5
((dp973
g8
F0
sg9
F0
sg10
F0
sg11
I0
sg12
I0
sg13
I0
sg14
I0
stRp974
tp975
sg22
(g5
((dtRp976
g5
((dp977
g8
F0
sg9
F0
sg10
F0
sg11
I0
sg12
I0
sg13
I0
sg14
I0
stRp978
tp979
sg27
g5
((dp980
g29
g30
(g32
S'\xe0\xcaO\xaa.z\xe1@'
tRp981
sg34
g30
(g32
S'\x9a\x99\x99\x99\xd6y2A'
tRp982
sg36
g30
(g32
S'\\aA9&\xa3\xc0?'
tRp983
sg38
g30
(g32
S'\xf1\x17\xec\x0e\x11\xb68A'
tRp984
sg40
F98979.308196087703
sg41
g30
(g32
S'\x9a\x99\x99\x99?*8A'
tRp985
sg43
g30
(g32
S'\xd6\xcf\xc9\x06\xb1G\xda?'
tRp986
sg45
F157383.49576114942
sg46
g30
(g32
S'c\x83\xb4.\xc0\x19\xcb?'
tRp987
sg48
F256362.80395723713
sg49
g30
(g32
S'\x00\x00\x00\x00\x00\x00\x00\x00'
tRp988
sg51
g30
(g32
S'\x00\x00\x00\x00\x00\x00\x00\x00'
tRp989
sg53
g30
(g32
S'\x0eD\xe6\xea3\xed\xb4?'
tRp990
stRp991
ss(I4
I30
I300
tp992
(dp993
g4
(g5
((dtRp994
g5
((dp995
g8
F0
sg9
F0
sg10
F0
sg11
I0
sg12
I0
sg13
I0
sg14
I0
stRp996
tp997
sg17
(g5
((dtRp998
g5
((dp999
g8
F0
sg9
F0
sg10
F0
sg11
I0
sg12
I0
sg13
I0
sg14
I0
stRp1000
tp1001
sg22
(g5
((dtRp1002
g5
((dp1003
g8
F0
sg9
F0
sg10
F0
sg11
I0
sg12
I0
sg13
I0
sg14
I0
stRp1004
tp1005
sg27
g5
((dp1006
g29
g30
(g32
S'\x00\xaf%\xe4\x1b@\xda@'
tRp1007
sg34
g30
(g32
S'\x99\x99\x99\x99\x89\xea\x06A'
tRp1008
sg36
g30
(g32
S'\x9a;:\xa0\x15\xf0\xb4?'
tRp1009
sg38
g30
(g32
S'\xac\x82QI$g\x0fA'
tRp1010
sg40
F12157.375932983037
sg41
g30
(g32
S'\xcc\xcc\xcc\xcc \x1f\x0cA'
tRp1011
sg43
g30
(g32
S'nNP7\xfd#\xd8?'
tRp1012
sg45
F15354.070596859399
sg46
g30
(g32
S'\x1b\x91\xfa\x89\x1a\xc2\xc2?'
tRp1013
sg48
F27511.446529842426
sg49
g30
(g32
S'\x00\x00\x00\x00\x00\x00\x00\x00'
tRp1014
sg51
g30
(g32
S'\x00\x00\x00\x00\x00\x00\x00\x00'
tRp1015
sg53
g30
(g32
S'\xa1\xe6\xbas\x1f\x94\xb0?'
tRp1016
stRp1017
ss(I10
I80
I300
tp1018
(dp1019
g4
(g5
((dtRp1020
g5
((dp1021
g8
F0
sg9
F0
sg10
F0
sg11
I0
sg12
I0
sg13
I0
sg14
I0
stRp1022
tp1023
sg17
(g5
((dtRp1024
g5
((dp1025
g8
F0
sg9
F0
sg10
F0
sg11
I0
sg12
I0
sg13
I0
sg14
I0
stRp1026
tp1027
sg22
(g5
((dtRp1028
g5
((dp1029
g8
F0
sg9
F0
sg10
F0
sg11
I0
sg12
I0
sg13
I0
sg14
I0
stRp1030
tp1031
sg27
g5
((dp1032
g29
g30
(g32
S'\xc0\xb4\x15\xfb\xf0\x8d\xe4@'
tRp1033
sg34
g30
(g32
S'\xcd\xcc\xccL\xb1\x987A'
tRp1034
sg36
g30
(g32
S'\x0b\xb8b\x03(\xec\xbe?'
tRp1035
sg38
g30
(g32
S'\xa6\xad\xd8\x87\xd2A>A'
tRp1036
sg40
F132689.79816612572
sg41
g30
(g32
S'\x00\x00\x00\x00c\x9d=A'
tRp1037
sg43
g30
(g32
S'\x017\x92\xd8nf\xd8?'
tRp1038
sg45
F186793.22897936669
sg46
g30
(g32
S'\x0e\xe7\xa2\x98\xb9q\xca?'
tRp1039
sg48
F319483.02714549244
sg49
g30
(g32
S'\x00\x00\x00\x00\x00\x00\x00\x00'
tRp1040
sg51
g30
(g32
S'\x00\x00\x00\x00\x00\x00\x00\x00'
tRp1041
sg53
g30
(g32
S'\x10\x16\xe3-K\xf7\xb5?'
tRp1042
stRp1043
ss(I19
I150
I150
tp1044
(dp1045
g4
(g5
((dtRp1046
g5
((dp1047
g8
F0
sg9
F0
sg10
F0
sg11
I0
sg12
I0
sg13
I0
sg14
I0
stRp1048
tp1049
sg17
(g5
((dtRp1050
g5
((dp1051
g8
F0
sg9
F0
sg10
F0
sg11
I0
sg12
I0
sg13
I0
sg14
I0
stRp1052
tp1053
sg22
(g5
((dtRp1054
g5
((dp1055
g8
F0
sg9
F0
sg10
F0
sg11
I0
sg12
I0
sg13
I0
sg14
I0
stRp1056
tp1057
sg27
g5
((dp1058
g29
g30
(g32
S'\x00>\x18\x95\xa0\xa8\xd6@'
tRp1059
sg34
g30
(g32
S'\xcd\xcc\xcc\xac\xc3\xcadA'
tRp1060
sg36
g30
(g32
S'\x83\x04\xc6\x12M\xc5\xb3?'
tRp1061
sg38
g30
(g32
S'R\xbf}\xe3\\\x1dgA'
tRp1062
sg40
F1194426.3916635313
sg41
g30
(g32
S'333\x93\x08\x12gA'
tRp1063
sg43
g30
(g32
S'ah\xa3\x8cP/\xd1?'
tRp1064
sg45
F841878.5286096218
sg46
g30
(g32
S'\xe2c\xa3s\x0b\xe9\xc7?'
tRp1065
sg48
F2036304.9202731536
sg49
g30
(g32
S'\x00\x00\x00\x00\x00\x00\x00\x00'
tRp1066
sg51
g30
(g32
S'\x00\x00\x00\x00\x00\x00\x00\x00'
tRp1067
sg53
g30
(g32
S'>\xc3\x80\xd4\xc9\x0c\xbc?'
tRp1068
stRp1069
ss(I34
I150
I40
tp1070
(dp1071
g4
(g5
((dtRp1072
g5
((dp1073
g8
F0
sg9
F0
sg10
F0
sg11
I0
sg12
I0
sg13
I0
sg14
I0
stRp1074
tp1075
sg17
(g5
((dtRp1076
g5
((dp1077
g8
F0
sg9
F0
sg10
F0
sg11
I0
sg12
I0
sg13
I0
sg14
I0
stRp1078
tp1079
sg22
(g5
((dtRp1080
g5
((dp1081
g8
F0
sg9
F0
sg10
F0
sg11
I0
sg12
I0
sg13
I0
sg14
I0
stRp1082
tp1083
sg27
g5
((dp1084
g29
g30
(g32
S'\x00\xae\x9b\xc48\xc1\xe1@'
tRp1085
sg34
g30
(g32
S'efff|\x8aqA'
tRp1086
sg36
g30
(g32
S'x\xff\x98(V\xce\xb6?'
tRp1087
sg38
g30
(g32
S'\xa4\x1a/yU\x85sA'
tRp1088
sg40
F1631724.7815399156
sg41
g30
(g32
S'\xcd\xcc\xcc\xdct|sA'
tRp1089
sg43
g30
(g32
S'\x19\x9e\x00tY\xb7\xd0?'
tRp1090
sg45
F1638560.512966888
sg46
g30
(g32
S'z)\xc6\x8c(\xc2\xc6?'
tRp1091
sg48
F3270285.2945068036
sg49
g30
(g32
S'\x00\x00\x00\x00\x00\x00\x00\x00'
tRp1092
sg51
g30
(g32
S'\x00\x00\x00\x00\x00\x00\x00\x00'
tRp1093
sg53
g30
(g32
S'}S\xf3\xf0\xfa\xb5\xb6?'
tRp1094
stRp1095
ss(I26
I150
I25
tp1096
(dp1097
g4
(g5
((dtRp1098
g5
((dp1099
g8
F0
sg9
F0
sg10
F0
sg11
I0
sg12
I0
sg13
I0
sg14
I0
stRp1100
tp1101
sg17
(g5
((dtRp1102
g5
((dp1103
g8
F0
sg9
F0
sg10
F0
sg11
I0
sg12
I0
sg13
I0
sg14
I0
stRp1104
tp1105
sg22
(g5
((dtRp1106
g5
((dp1107
g8
F0
sg9
F0
sg10
F0
sg11
I0
sg12
I0
sg13
I0
sg14
I0
stRp1108
tp1109
sg27
g5
((dp1110
g29
g30
(g32
S'\x00\x8e\xe3\x14\x1f\xe2\xe5@'
tRp1111
sg34
g30
(g32
S'\xcd\xcc\xcc\xec\x9f.rA'
tRp1112
sg36
g30
(g32
S'\x82e\xba\xd5\xfc\xd6\xb6?'
tRp1113
sg38
g30
(g32
S'\xc6q\x8a\x7fO*tA'
tRp1114
sg40
F1803840.7744826246
sg41
g30
(g32
S'\xff\xff\xffo^\x1ftA'
tRp1115
sg43
g30
(g32
S'\xff\x89U\xba\xf8\xe6\xd0?'
tRp1116
sg45
F1700970.8195820311
sg46
g30
(g32
S"\xf2\xf8'\xd8\xca\x87\xc7?"
tRp1117
sg48
F3504811.5940646571
sg49
g30
(g32
S'\x00\x00\x00\x00\x00\x00\x00\x00'
tRp1118
sg51
g30
(g32
S'\x00\x00\x00\x00\x00\x00\x00\x00'
tRp1119
sg53
g30
(g32
S'^\x8c\x95\xda\x988\xb8?'
tRp1120
stRp1121
ss(I32
I150
I3333
tp1122
(dp1123
g4
(g5
((dtRp1124
g5
((dp1125
g8
F0
sg9
F0
sg10
F0
sg11
I0
sg12
I0
sg13
I0
sg14
I0
stRp1126
tp1127
sg17
(g5
((dtRp1128
g5
((dp1129
g8
F0
sg9
F0
sg10
F0
sg11
I0
sg12
I0
sg13
I0
sg14
I0
stRp1130
tp1131
sg22
(g5
((dtRp1132
g5
((dp1133
g8
F0
sg9
F0
sg10
F0
sg11
I0
sg12
I0
sg13
I0
sg14
I0
stRp1134
tp1135
sg27
g5
((dp1136
g29
g30
(g32
S'@\xfbt<\xd0\xaa\xe0@'
tRp1137
sg34
g30
(g32
S"3333\\P'A"
tRp1138
sg36
g30
(g32
S'q~\xc7\xfcU\xd5\xa0?'
tRp1139
sg38
g30
(g32
S'\x82\x1c\x94\xd0\xb0M/A'
tRp1140
sg40
F32544.308423576753
sg41
g30
(g32
S'\xce\xcc\xcc\xcc\x03C.A'
tRp1141
sg43
g30
(g32
S'\x84\x7f\xf7\xea\xae\xee\xd3?'
tRp1142
sg45
F25116.863882773247
sg46
g30
(g32
S'\x02\xc6D%\x81R\xb3?'
tRp1143
sg48
F57661.172306349989
sg49
g30
(g32
S'\x00\x00\x00\x00\x00\x00\x00\x00'
tRp1144
sg51
g30
(g32
S'\x00\x00\x00\x00\x00\x00\x00\x00'
tRp1145
sg53
g30
(g32
S'\x95\r\xc2M\xac\xcf\xa5?'
tRp1146
stRp1147
ss(I30
I150
I300
tp1148
(dp1149
g4
(g5
((dtRp1150
g5
((dp1151
g8
F0
sg9
F0
sg10
F0
sg11
I0
sg12
I0
sg13
I0
sg14
I0
stRp1152
tp1153
sg17
(g5
((dtRp1154
g5
((dp1155
g8
F0
sg9
F0
sg10
F0
sg11
I0
sg12
I0
sg13
I0
sg14
I0
stRp1156
tp1157
sg22
(g5
((dtRp1158
g5
((dp1159
g8
F0
sg9
F0
sg10
F0
sg11
I0
sg12
I0
sg13
I0
sg14
I0
stRp1160
tp1161
sg27
g5
((dp1162
g29
g30
(g32
S"\x00^'\xa0M\xa7\xdb@"
tRp1163
sg34
g30
(g32
S'\x9a\x99\x99I\xc4\x00fA'
tRp1164
sg36
g30
(g32
S'v\xb2\x16I@\x8e\xb5?'
tRp1165
sg38
g30
(g32
S'\xae\x13\xd0\x16\x8f\xaeiA'
tRp1166
sg40
F1247677.2786002948
sg41
g30
(g32
S'\xff\xff\xffo\xbb\xa0iA'
tRp1167
sg43
g30
(g32
S'O\x08\xc0,\x1b\xb7\xd3?'
tRp1168
sg45
F971344.41841629846
sg46
g30
(g32
S"\x8aW'H.\x9f\xc8?"
tRp1169
sg48
F2219021.6970165935
sg49
g30
(g32
S'\x00\x00\x00\x00\x00\x00\x00\x00'
tRp1170
sg51
g30
(g32
S'\x00\x00\x00\x00\x00\x00\x00\x00'
tRp1171
sg53
g30
(g32
S'\x9c\xfc7G\x1c\xb0\xbb?'
tRp1172
stRp1173
ss(I29
I150
I30
tp1174
(dp1175
g4
(g5
((dtRp1176
g5
((dp1177
g8
F0
sg9
F0
sg10
F0
sg11
I0
sg12
I0
sg13
I0
sg14
I0
stRp1178
tp1179
sg17
(g5
((dtRp1180
g5
((dp1181
g8
F0
sg9
F0
sg10
F0
sg11
I0
sg12
I0
sg13
I0
sg14
I0
stRp1182
tp1183
sg22
(g5
((dtRp1184
g5
((dp1185
g8
F0
sg9
F0
sg10
F0
sg11
I0
sg12
I0
sg13
I0
sg14
I0
stRp1186
tp1187
sg27
g5
((dp1188
g29
g30
(g32
S'\x00\xbc*\xc1y\xa0\xe4@'
tRp1189
sg34
g30
(g32
S'\x9a\x99\x99)\x0e\xb5pA'
tRp1190
sg36
g30
(g32
S'\xf3\x8d\xe7B\xa8\x99\xb6?'
tRp1191
sg38
g30
(g32
S'\xc4\xfbF;J\x92rA'
tRp1192
sg40
F1602191.3581897367
sg41
g30
(g32
S'fff\xfe\xf9\x87rA'
tRp1193
sg43
g30
(g32
S'\xe9\x90n\xa8\xd7\xc5\xd0?'
tRp1194
sg45
F1546598.5139518639
sg46
g30
(g32
S'y\xd4\xff\x02\xa4\x01\xc7?'
tRp1195
sg48
F3148789.8721416006
sg49
g30
(g32
S'\x00\x00\x00\x00\x00\x00\x00\x00'
tRp1196
sg51
g30
(g32
S'\x00\x00\x00\x00\x00\x00\x00\x00'
tRp1197
sg53
g30
(g32
S'\xff\x1a\x18\xc3\x9fi\xb7?'
tRp1198
stRp1199
ss(I41
I150
I500
tp1200
(dp1201
g4
(g5
((dtRp1202
g5
((dp1203
g8
F0
sg9
F0
sg10
F0
sg11
I0
sg12
I0
sg13
I0
sg14
I0
stRp1204
tp1205
sg17
(g5
((dtRp1206
g5
((dp1207
g8
F0
sg9
F0
sg10
F0
sg11
I0
sg12
I0
sg13
I0
sg14
I0
stRp1208
tp1209
sg22
(g5
((dtRp1210
g5
((dp1211
g8
F0
sg9
F0
sg10
F0
sg11
I0
sg12
I0
sg13
I0
sg14
I0
stRp1212
tp1213
sg27
g5
((dp1214
g29
g30
(g32
S'\x00\x06\x829\xa6\xdf\xe0@'
tRp1215
sg34
g30
(g32
S'effF\xe7MgA'
tRp1216
sg36
g30
(g32
S'4\x0b&\xf8\x15w\xb5?'
tRp1217
sg38
g30
(g32
S'\xd2N\x06\xa3unnA'
tRp1218
sg40
F1258988.7317355704
sg41
g30
(g32
S'\xcc\xcc\xcc\xfc\x95]nA'
tRp1219
sg43
g30
(g32
S'\xd3\x8c\xba\xd9\x13&\xd8?'
tRp1220
sg45
F1024473.4769322423
sg46
g30
(g32
S'\x14\xa7\xda\xb3\x08\xec\xc7?'
tRp1221
sg48
F2283462.2086678129
sg49
g30
(g32
S'\x00\x00\x00\x00\x00\x00\x00\x00'
tRp1222
sg51
g30
(g32
S'\x00\x00\x00\x00\x00\x00\x00\x00'
tRp1223
sg53
g30
(g32
S'\xf3B\x8fo\xfb`\xba?'
tRp1224
stRp1225
ss(I46
I150
I600
tp1226
(dp1227
g4
(g5
((dtRp1228
g5
((dp1229
g8
F0
sg9
F0
sg10
F0
sg11
I0
sg12
I0
sg13
I0
sg14
I0
stRp1230
tp1231
sg17
(g5
((dtRp1232
g5
((dp1233
g8
F0
sg9
F0
sg10
F0
sg11
I0
sg12
I0
sg13
I0
sg14
I0
stRp1234
tp1235
sg22
(g5
((dtRp1236
g5
((dp1237
g8
F0
sg9
F0
sg10
F0
sg11
I0
sg12
I0
sg13
I0
sg14
I0
stRp1238
tp1239
sg27
g5
((dp1240
g29
g30
(g32
S'\x00\xf8BV+\x15\xe3@'
tRp1241
sg34
g30
(g32
S'ifffK$jA'
tRp1242
sg36
g30
(g32
S"'=|{/p\xb7?"
tRp1243
sg38
g30
(g32
S'\x16\xbbD\xefNmqA'
tRp1244
sg40
F1353984.2168699666
sg41
g30
(g32
S'\x9a\x99\x99Y\xc4cqA'
tRp1245
sg43
g30
(g32
S'e\xe5U\xdeu"\xd9?'
tRp1246
sg45
F1254844.0144004121
sg46
g30
(g32
S'E\x07\xba\xf65]\xc8?'
tRp1247
sg48
F2608828.2312703785
sg49
g30
(g32
S'\x00\x00\x00\x00\x00\x00\x00\x00'
tRp1248
sg51
g30
(g32
S'\x00\x00\x00\x00\x00\x00\x00\x00'
tRp1249
sg53
g30
(g32
S'e\xd1\xf7q<J\xb9?'
tRp1250
stRp1251
ss(I28
I150
I2750
tp1252
(dp1253
g4
(g5
((dtRp1254
g5
((dp1255
g8
F0
sg9
F0
sg10
F0
sg11
I0
sg12
I0
sg13
I0
sg14
I0
stRp1256
tp1257
sg17
(g5
((dtRp1258
g5
((dp1259
g8
F0
sg9
F0
sg10
F0
sg11
I0
sg12
I0
sg13
I0
sg14
I0
stRp1260
tp1261
sg22
(g5
((dtRp1262
g5
((dp1263
g8
F0
sg9
F0
sg10
F0
sg11
I0
sg12
I0
sg13
I0
sg14
I0
stRp1264
tp1265
sg27
g5
((dp1266
g29
g30
(g32
S'\x80\x8eE\xd3Gu\xe2@'
tRp1267
sg34
g30
(g32
S'efff\xc0P+A'
tRp1268
sg36
g30
(g32
S'\x84\x15gi^\xae\xa7?'
tRp1269
sg38
g30
(g32
S'\x0e\xc63\xd8\xe8\x8e2A'
tRp1270
sg40
F49576.746414417954
sg41
g30
(g32
S'\x9a\x99\x99\x99>\xfb1A'
tRp1271
sg43
g30
(g32
S'\x04\xc4\x06\xed\xee\xaf\xd5?'
tRp1272
sg45
F41399.061395899938
sg46
g30
(g32
S'\x05\xa7\x10\xc8 \x05\xba?'
tRp1273
sg48
F90975.80781031787
sg49
g30
(g32
S'\x00\x00\x00\x00\x00\x00\x00\x00'
tRp1274
sg51
g30
(g32
S'\x00\x00\x00\x00\x00\x00\x00\x00'
tRp1275
sg53
g30
(g32
S'\x898\xba&\xe3[\xac?'
tRp1276
stRp1277
ss(I45
I150
I5750
tp1278
(dp1279
g4
(g5
((dtRp1280
g5
((dp1281
g8
F0
sg9
F0
sg10
F0
sg11
I0
sg12
I0
sg13
I0
sg14
I0
stRp1282
tp1283
sg17
(g5
((dtRp1284
g5
((dp1285
g8
F0
sg9
F0
sg10
F0
sg11
I0
sg12
I0
sg13
I0
sg14
I0
stRp1286
tp1287
sg22
(g5
((dtRp1288
g5
((dp1289
g8
F0
sg9
F0
sg10
F0
sg11
I0
sg12
I0
sg13
I0
sg14
I0
stRp1290
tp1291
sg27
g5
((dp1292
g29
g30
(g32
S'`\xed|?\xa5=\xc4@'
tRp1293
sg34
g30
(g32
S'ffff\x16\x06\xff@'
tRp1294
sg36
g30
(g32
S'F\x8f^e\x19d\xab?'
tRp1295
sg38
g30
(g32
S'\xd6\xce\xf7S\x02|\x05A'
tRp1296
sg40
F10789.255894824757
sg41
g30
(g32
S'\x00\x00\x00\x00(8\x04A'
tRp1297
sg43
g30
(g32
S'\xe8\xfc\xa5|\xde/\xd8?'
tRp1298
sg45
F6798.1818150751951
sg46
g30
(g32
S'\xeebM\xfa6\xb7\xc1?'
tRp1299
sg48
F17587.437709899954
sg49
g30
(g32
S'\x00\x00\x00\x00\x00\x00\x00\x00'
tRp1300
sg51
g30
(g32
S'\x00\x00\x00\x00\x00\x00\x00\x00'
tRp1301
sg53
g30
(g32
S'8~\xebAa\xbc\xb5?'
tRp1302
stRp1303
ss(I7
I45
I300
tp1304
(dp1305
g4
(g5
((dtRp1306
g5
((dp1307
g8
F0
sg9
F0
sg10
F0
sg11
I0
sg12
I0
sg13
I0
sg14
I0
stRp1308
tp1309
sg17
(g5
((dtRp1310
g5
((dp1311
g8
F0
sg9
F0
sg10
F0
sg11
I0
sg12
I0
sg13
I0
sg14
I0
stRp1312
tp1313
sg22
(g5
((dtRp1314
g5
((dp1315
g8
F0
sg9
F0
sg10
F0
sg11
I0
sg12
I0
sg13
I0
sg14
I0
stRp1316
tp1317
sg27
g5
((dp1318
g29
g30
(g32
S'0#lx\x0f\x9c\xe5@'
tRp1319
sg34
g30
(g32
S'gfff\x12A)A'
tRp1320
sg36
g30
(g32
S'(\x8e\x14\xbfg<\xb8?'
tRp1321
sg38
g30
(g32
S'\xff\x8eS\xc4r\xd8/A'
tRp1322
sg40
F63876.125680625824
sg41
g30
(g32
S'\xcc\xcc\xcc\xcc\xb1~.A'
tRp1323
sg43
g30
(g32
S'`Q\x8e\xfa\x16\xf8\xd5?'
tRp1324
sg45
F78343.605358738772
sg46
g30
(g32
S'\xbb\xbb\r\xe0\x87\xff\xc5?'
tRp1325
sg48
F142219.73103936459
sg49
g30
(g32
S'\x00\x00\x00\x00\x00\x00\x00\x00'
tRp1326
sg51
g30
(g32
S'\x00\x00\x00\x00\x00\x00\x00\x00'
tRp1327
sg53
g30
(g32
S'O\xe9\x06\x01\xa8\xc2\xb3?'
tRp1328
stRp1329
ss(I27
I150
I2500
tp1330
(dp1331
g4
(g5
((dtRp1332
g5
((dp1333
g8
F0
sg9
F0
sg10
F0
sg11
I0
sg12
I0
sg13
I0
sg14
I0
stRp1334
tp1335
sg17
(g5
((dtRp1336
g5
((dp1337
g8
F0
sg9
F0
sg10
F0
sg11
I0
sg12
I0
sg13
I0
sg14
I0
stRp1338
tp1339
sg22
(g5
((dtRp1340
g5
((dp1341
g8
F0
sg9
F0
sg10
F0
sg11
I0
sg12
I0
sg13
I0
sg14
I0
stRp1342
tp1343
sg27
g5
((dp1344
g29
g30
(g32
S'\xa0\x00\xc63\x85\xb8\xe0@'
tRp1345
sg34
g30
(g32
S'4333\xa59%A'
tRp1346
sg36
g30
(g32
S'O\x11\xd0\xdep\xa5\xa8?'
tRp1347
sg38
g30
(g32
S'\xd8,\t \x8f\xb4-A'
tRp1348
sg40
F27703.77589404348
sg41
g30
(g32
S'\xce\xcc\xcc\xcc\x06\xa9,A'
tRp1349
sg43
g30
(g32
S'\xc12h\xa2\x11K\xd6?'
tRp1350
sg45
F33479.749970685414
sg46
g30
(g32
S'\x10\xd4W\x1d/\x85\xb6?'
tRp1351
sg48
F61183.525864728901
sg49
g30
(g32
S'\x00\x00\x00\x00\x00\x00\x00\x00'
tRp1352
sg51
g30
(g32
S'\x00\x00\x00\x00\x00\x00\x00\x00'
tRp1353
sg53
g30
(g32
S'\xd0\x96\xdf[\xedd\xa4?'
tRp1354
stRp1355
ss(I15
I150
I100
tp1356
(dp1357
g4
(g5
((dtRp1358
g5
((dp1359
g8
F0
sg9
F0
sg10
F0
sg11
I0
sg12
I0
sg13
I0
sg14
I0
stRp1360
tp1361
sg17
(g5
((dtRp1362
g5
((dp1363
g8
F0
sg9
F0
sg10
F0
sg11
I0
sg12
I0
sg13
I0
sg14
I0
stRp1364
tp1365
sg22
(g5
((dtRp1366
g5
((dp1367
g8
F0
sg9
F0
sg10
F0
sg11
I0
sg12
I0
sg13
I0
sg14
I0
stRp1368
tp1369
sg27
g5
((dp1370
g29
g30
(g32
S'\x00\xa0\xaf\xc9\xe0\xa3\xdf@'
tRp1371
sg34
g30
(g32
S'\xce\xcc\xcc$}\xdcpA'
tRp1372
sg36
g30
(g32
S'\n\xcd|\xf4\xf7h\xb5?'
tRp1373
sg38
g30
(g32
S'\xe7k2\xa0s\xfbrA'
tRp1374
sg40
F1513642.024340149
sg41
g30
(g32
S'\xff\xff\xff\xa7\x8a\xf3rA'
tRp1375
sg43
g30
(g32
S'\x88\x00\xb5R\xb7\xc5\xd0?'
tRp1376
sg45
F1478658.7311688312
sg46
g30
(g32
S'\x186(\x1e\xce\xa9\xc5?'
tRp1377
sg48
F2992300.7555089807
sg49
g30
(g32
S'\x00\x00\x00\x00\x00\x00\x00\x00'
tRp1378
sg51
g30
(g32
S'\x00\x00\x00\x00\x00\x00\x00\x00'
tRp1379
sg53
g30
(g32
S'$\x9f\xd3G\xa4\xea\xb5?'
tRp1380
stRp1381
ss.