(dp1
(I33
I150
I3666
tp2
(dp3
S'basic_analysis'
p4
(ccollections
Counter
p5
((dtRp6
g5
((dp7
S'total_reactions'
p8
F0
sS'total_frags'
p9
F0
sS'unreacted_precursors'
p10
F0
sS'ETnoD'
p11
I0
sS'PTR_precursor'
p12
I0
sS'ETnoD_precursor'
p13
I0
sS'PTR'
p14
I0
stRp15
tp16
sS'advanced_analysis'
p17
(g5
((dtRp18
g5
((dp19
g8
F0
sg9
F0
sg10
F0
sg11
I0
sg12
I0
sg13
I0
sg14
I0
stRp20
tp21
sS'intermediate_analysis'
p22
(g5
((dtRp23
g5
((dp24
g8
F0
sg9
F0
sg10
F0
sg11
I0
sg12
I0
sg13
I0
sg14
I0
stRp25
tp26
sS'summary'
p27
g5
((dp28
S'intensity_trimed_out'
p29
cnumpy.core.multiarray
scalar
p30
(cnumpy
dtype
p31
(S'f8'
I0
I1
tRp32
(I3
S'<'
NNNI-1
I-1
I0
tbS'x\xd0\xd0?+\x13\xf7@'
tRp33
sS'intensity_within_tolerance'
p34
g30
(g32
S'\xcc\xcc\xcc\xcc(g"A'
tRp35
sS'underestimates/intensity_within_tolerance'
p36
g30
(g32
S'\xec\xbf\xaf\xc3yN\xa0?'
tRp37
sS'intensity_original'
p38
g30
(g32
S'\xa9\xb3\x93\x01\x16\x8f(A'
tRp39
sS'overestimates'
p40
F29361.330584188949
sS'intensity_after_trim'
p41
g30
(g32
S'\x9a\x99\x99\x99\xb0\xac%A'
tRp42
sS'L1_fit_error_and_unused_intensity/original_total_intensity'
p43
g30
(g32
S'<\x1f\x06\x03\x9d\xe7\xd3?'
tRp44
sS'underestimates'
p45
F19205.683649814033
sS'L1_error/intensity_within_tolerance'
p46
g30
(g32
S'=z\r!,\x9e\xb4?'
tRp47
sS'L1_error'
p48
F48567.014234002978
sS'L1_error_value_error/original_total_intensity'
p49
g30
(g32
S'\x00\x00\x00\x00\x00\x00\x00\x00'
tRp50
sS'L1_error_value_error/intensity_within_tolerance'
p51
g30
(g32
S'\x00\x00\x00\x00\x00\x00\x00\x00'
tRp52
sS'overestimates/intensity_within_tolerance'
p53
g30
(g32
S'\x8f4k~\xde\xed\xa8?'
tRp54
stRp55
ss(I24
I150
I2000
tp56
(dp57
g4
(g5
((dtRp58
g5
((dp59
g8
F0
sg9
F0
sg10
F0
sg11
I0
sg12
I0
sg13
I0
sg14
I0
stRp60
tp61
sg17
(g5
((dtRp62
g5
((dp63
g8
F0
sg9
F0
sg10
F0
sg11
I0
sg12
I0
sg13
I0
sg14
I0
stRp64
tp65
sg22
(g5
((dtRp66
g5
((dp67
g8
F0
sg9
F0
sg10
F0
sg11
I0
sg12
I0
sg13
I0
sg14
I0
stRp68
tp69
sg27
g5
((dp70
g29
g30
(g32
S'\x9c\xf81\xe6\x05\xf7\xe8@'
tRp71
sg34
g30
(g32
S'4333\xbb.\xfd@'
tRp72
sg36
g30
(g32
S'\x1e\xd8\xb7\xfb\x18\xfb\x9f?'
tRp73
sg38
g30
(g32
S"'~\x8cy\xfd\xd3\x07A"
tRp74
sg40
F6267.046403008716
sg41
g30
(g32
S'\x00\x00\x00\x00<\x96\x01A'
tRp75
sg43
g30
(g32
S'\xc0\xf4M\x02\x85\x16\xdc?'
tRp76
sg45
F3733.1302379907906
sg46
g30
(g32
S'\xc2\xae\xb1\x97\xd3j\xb5?'
tRp77
sg48
F10000.176640999505
sg49
g30
(g32
S'\x00\x00\x00\x00\x00\x00\x00\x00'
tRp78
sg51
g30
(g32
S'\x00\x00\x00\x00\x00\x00\x00\x00'
tRp79
sg53
g30
(g32
S'vq\x87\xb1\x1a\xd8\xaa?'
tRp80
stRp81
ss(I21
I150
I1750
tp82
(dp83
g4
(g5
((dtRp84
g5
((dp85
g8
F0
sg9
F0
sg10
F0
sg11
I0
sg12
I0
sg13
I0
sg14
I0
stRp86
tp87
sg17
(g5
((dtRp88
g5
((dp89
g8
F0
sg9
F0
sg10
F0
sg11
I0
sg12
I0
sg13
I0
sg14
I0
stRp90
tp91
sg22
(g5
((dtRp92
g5
((dp93
g8
F0
sg9
F0
sg10
F0
sg11
I0
sg12
I0
sg13
I0
sg14
I0
stRp94
tp95
sg27
g5
((dp96
g29
g30
(g32
S'\xf4\\m\xc5r\xaa\xe3@'
tRp97
sg34
g30
(g32
S'\x01\x00\x00\x00X6\xf6@'
tRp98
sg36
g30
(g32
S'\xb7\x95\x01E\xa2\xe7\xaa?'
tRp99
sg38
g30
(g32
S'=W[\xb1\xa8(\x02A'
tRp100
sg40
F7779.5929372278415
sg41
g30
(g32
S'\x00\x00\x00\x00\x18|\xfa@'
tRp101
sg43
g30
(g32
S'T\xedh-\xc5B\xde?'
tRp102
sg45
F4780.9391825067287
sg46
g30
(g32
S'\x15#&\xc2\xd0\xab\xc1?'
tRp103
sg48
F12560.532119734573
sg49
g30
(g32
S'\x00\x00\x00\x00\x00\x00\x00\x00'
tRp104
sg51
g30
(g32
S'\x00\x00\x00\x00\x00\x00\x00\x00'
tRp105
sg53
g30
(g32
S'L{\xcba\xd0\xe3\xb5?'
tRp106
stRp107
ss(I0
I0
I300
tp108
(dp109
g4
(g5
((dtRp110
g5
((dp111
g8
F0
sg9
F0
sg10
F0
sg11
I0
sg12
I0
sg13
I0
sg14
I0
stRp112
tp113
sg17
(g5
((dtRp114
g5
((dp115
g8
F0
sg9
F0
sg10
F0
sg11
I0
sg12
I0
sg13
I0
sg14
I0
stRp116
tp117
sg22
(g5
((dtRp118
g5
((dp119
g8
F0
sg9
F0
sg10
F0
sg11
I0
sg12
I0
sg13
I0
sg14
I0
stRp120
tp121
sg27
g5
((dp122
g29
g30
(g32
S'\x08\x93\xa9\x82\x15\x16\xd0@'
tRp123
sg34
g30
(g32
S'\x99\x99\x99\x99\x99\xc4\xc6@'
tRp124
sg36
g30
(g32
S'k\x90\xfe\xaf\xd94\xa3?'
tRp125
sg38
g30
(g32
S'\xd5_vO\x82\x9d\xde@'
tRp126
sg40
F1502.8788554477783
sg41
g30
(g32
S'\x99\x99\x99\x99\xd9\x0e\xcd@'
tRp127
sg43
g30
(g32
S'^\xa3\x94\x01\xde\x14\xe6?'
tRp128
sg45
F437.29177706449013
sg46
g30
(g32
S'\xa6}??\xc1M\xc5?'
tRp129
sg48
F1940.1706325122682
sg49
g30
(g32
S'\x00\x00\x00\x00\x00\x00\x00\x00'
tRp130
sg51
g30
(g32
S'\x00\x00\x00\x00\x00\x00\x00\x00'
tRp131
sg53
g30
(g32
S'\x8c\xd9?\xd3\x8a\x80\xc0?'
tRp132
stRp133
ss(I47
I150
I6000
tp134
(dp135
g4
(g5
((dtRp136
g5
((dp137
g8
F0
sg9
F0
sg10
F0
sg11
I0
sg12
I0
sg13
I0
sg14
I0
stRp138
tp139
sg17
(g5
((dtRp140
g5
((dp141
g8
F0
sg9
F0
sg10
F0
sg11
I0
sg12
I0
sg13
I0
sg14
I0
stRp142
tp143
sg22
(g5
((dtRp144
g5
((dp145
g8
F0
sg9
F0
sg10
F0
sg11
I0
sg12
I0
sg13
I0
sg14
I0
stRp146
tp147
sg27
g5
((dp148
g29
g30
(g32
S'`b\x10X\xd1\x17\xde@'
tRp149
sg34
g30
(g32
S'gfff\x16 \xfc@'
tRp150
sg36
g30
(g32
S'Blz\x03+\x1a\xa1?'
tRp151
sg38
g30
(g32
S'\xb2rh\x91\xc8L\x04A'
tRp152
sg40
F7324.0194922577357
sg41
g30
(g32
S'ffff\xce\x89\x00A'
tRp153
sg43
g30
(g32
S'\x1d~\xdb\x99\xc5\xf6\xd7?'
tRp154
sg45
F3848.0460018102976
sg46
g30
(g32
S'p\x9a&1\x96\xd3\xb8?'
tRp155
sg48
F11172.065494068034
sg49
g30
(g32
S'\x00\x00\x00\x00\x00\x00\x00\x00'
tRp156
sg51
g30
(g32
S'\x00\x00\x00\x00\x00\x00\x00\x00'
tRp157
sg53
g30
(g32
S'Odi\xaf\x80F\xb0?'
tRp158
stRp159
ss(I37
I150
I4250
tp160
(dp161
g4
(g5
((dtRp162
g5
((dp163
g8
F0
sg9
F0
sg10
F0
sg11
I0
sg12
I0
sg13
I0
sg14
I0
stRp164
tp165
sg17
(g5
((dtRp166
g5
((dp167
g8
F0
sg9
F0
sg10
F0
sg11
I0
sg12
I0
sg13
I0
sg14
I0
stRp168
tp169
sg22
(g5
((dtRp170
g5
((dp171
g8
F0
sg9
F0
sg10
F0
sg11
I0
sg12
I0
sg13
I0
sg14
I0
stRp172
tp173
sg27
g5
((dp174
g29
g30
(g32
S'\xfc\xff\xff\xff\x9cR\xf1@'
tRp175
sg34
g30
(g32
S'4333?9\x12A'
tRp176
sg36
g30
(g32
S'\x0c\xe5\x84\t"5\xa4?'
tRp177
sg38
g30
(g32
S'233s\xe6J\x1aA'
tRp178
sg40
F18176.685512144526
sg41
g30
(g32
S'3333?\xf6\x15A'
tRp179
sg43
g30
(g32
S'cP\x9b\xdb\x9e\x17\xd8?'
tRp180
sg45
F11784.151545460858
sg46
g30
(g32
S'\xbc\xb3\x9b\xb2C\xb0\xb9?'
tRp181
sg48
F29960.837057605382
sg49
g30
(g32
S'\x00\x00\x00\x00\x00\x00\x00\x00'
tRp182
sg51
g30
(g32
S'\x00\x00\x00\x00\x00\x00\x00\x00'
tRp183
sg53
g30
(g32
S'l\x82\xb2[e+\xaf?'
tRp184
stRp185
ss(I11
I100
I300
tp186
(dp187
g4
(g5
((dtRp188
g5
((dp189
g8
F0
sg9
F0
sg10
F0
sg11
I0
sg12
I0
sg13
I0
sg14
I0
stRp190
tp191
sg17
(g5
((dtRp192
g5
((dp193
g8
F0
sg9
F0
sg10
F0
sg11
I0
sg12
I0
sg13
I0
sg14
I0
stRp194
tp195
sg22
(g5
((dtRp196
g5
((dp197
g8
F0
sg9
F0
sg10
F0
sg11
I0
sg12
I0
sg13
I0
sg14
I0
stRp198
tp199
sg27
g5
((dp200
g29
g30
(g32
S'@_\x02\xb7\xf0\xf4\xf1@'
tRp201
sg34
g30
(g32
S'\x9a\x99\x99\x99Q\xbc7A'
tRp202
sg36
g30
(g32
S'\x02/\x1f|N\x04\xbb?'
tRp203
sg38
g30
(g32
S'(Y\xa3\xbe\x17\x19>A'
tRp204
sg40
F137724.95241785172
sg41
g30
(g32
S'433\xb3\xc8\xf9<A'
tRp205
sg43
g30
(g32
S'\x1c\xb7g\xca\xf0R\xd7?'
tRp206
sg45
F164162.82563126611
sg46
g30
(g32
S'\x0f\xdd\x8e\xf0a\xd7\xc8?'
tRp207
sg48
F301887.77804911783
sg49
g30
(g32
S'\x00\x00\x00\x00\x00\x00\x00\x00'
tRp208
sg51
g30
(g32
S'\x00\x00\x00\x00\x00\x00\x00\x00'
tRp209
sg53
g30
(g32
S'\x1c\x8b\xfedu\xaa\xb6?'
tRp210
stRp211
ss(I49
I150
I75
tp212
(dp213
g4
(g5
((dtRp214
g5
((dp215
g8
F0
sg9
F0
sg10
F0
sg11
I0
sg12
I0
sg13
I0
sg14
I0
stRp216
tp217
sg17
(g5
((dtRp218
g5
((dp219
g8
F0
sg9
F0
sg10
F0
sg11
I0
sg12
I0
sg13
I0
sg14
I0
stRp220
tp221
sg22
(g5
((dtRp222
g5
((dp223
g8
F0
sg9
F0
sg10
F0
sg11
I0
sg12
I0
sg13
I0
sg14
I0
stRp224
tp225
sg27
g5
((dp226
g29
g30
(g32
S'\x80\x8b7\xf2"\xd0\x04A'
tRp227
sg34
g30
(g32
S'\x9a\x99\x99\xd9;\xe3qA'
tRp228
sg36
g30
(g32
S'\xa4\x01N\xf3p(\xb6?'
tRp229
sg38
g30
(g32
S'\xe4;\xb1Jz\x0ftA'
tRp230
sg40
F1632826.2132915314
sg41
g30
(g32
S'\xcd\xcc\xcc\x04\xda\xe5sA'
tRp231
sg43
g30
(g32
S'\xda\x83\x9a\x06\xed\xd6\xd0?'
tRp232
sg45
F1623464.6541820152
sg46
g30
(g32
S'\x1a\xe5\xc3\xc7\xcb8\xc6?'
tRp233
sg48
F3256290.8674735459
sg49
g30
(g32
S'\x00\x00\x00\x00\x00\x00\x00\x00'
tRp234
sg51
g30
(g32
S'\x00\x00\x00\x00\x00\x00\x00\x00'
tRp235
sg53
g30
(g32
S'\x92\xc89\x9c&I\xb6?'
tRp236
stRp237
ss(I2
I20
I300
tp238
(dp239
g4
(g5
((dtRp240
g5
((dp241
g8
F0
sg9
F0
sg10
F0
sg11
I0
sg12
I0
sg13
I0
sg14
I0
stRp242
tp243
sg17
(g5
((dtRp244
g5
((dp245
g8
F0
sg9
F0
sg10
F0
sg11
I0
sg12
I0
sg13
I0
sg14
I0
stRp246
tp247
sg22
(g5
((dtRp248
g5
((dp249
g8
F0
sg9
F0
sg10
F0
sg11
I0
sg12
I0
sg13
I0
sg14
I0
stRp250
tp251
sg27
g5
((dp252
g29
g30
(g32
S'\xb4%\xe4\x83.I\xd5@'
tRp253
sg34
g30
(g32
S'\x00\x00\x00\x00\x10d\xe0@'
tRp254
sg36
g30
(g32
S'm\x95\xab\x85f\x1d\x9d?'
tRp255
sg38
g30
(g32
S'\xd9\x12\xf2A\xc7\x9e\xeb@'
tRp256
sg40
F3340.0773026178258
sg41
g30
(g32
S'\xff\xff\xff\xff/\xfa\xe0@'
tRp257
sg43
g30
(g32
S'?\x0e\xea\x1e\x00\xe1\xde?'
tRp258
sg45
F954.43524901229807
sg46
g30
(g32
S'5\x12\xbe2\x1a`\xc0?'
tRp259
sg48
F4294.5125516301241
sg49
g30
(g32
S'\x00\x00\x00\x00\x00\x00\x00\x00'
tRp260
sg51
g30
(g32
S'\x00\x00\x00\x00\x00\x00\x00\x00'
tRp261
sg53
g30
(g32
S'\x0f?\x11\xc4\xdax\xb9?'
tRp262
stRp263
ss(I43
I150
I5250
tp264
(dp265
g4
(g5
((dtRp266
g5
((dp267
g8
F0
sg9
F0
sg10
F0
sg11
I0
sg12
I0
sg13
I0
sg14
I0
stRp268
tp269
sg17
(g5
((dtRp270
g5
((dp271
g8
F0
sg9
F0
sg10
F0
sg11
I0
sg12
I0
sg13
I0
sg14
I0
stRp272
tp273
sg22
(g5
((dtRp274
g5
((dp275
g8
F0
sg9
F0
sg10
F0
sg11
I0
sg12
I0
sg13
I0
sg14
I0
stRp276
tp277
sg27
g5
((dp278
g29
g30
(g32
S'p\xc9T\xc1\xca:\xe7@'
tRp279
sg34
g30
(g32
S'\x9a\x99\x99\x99\xbd\x17\x0bA'
tRp280
sg36
g30
(g32
S'\xc4\xf819-\xea\x96?'
tRp281
sg38
g30
(g32
S'.\x99*X\x9b\x8a\x12A'
tRp282
sg40
F12000.384464486937
sg41
g30
(g32
S'\x00\x00\x00\x00\x84F\x0fA'
tRp283
sg43
g30
(g32
S'\x7f\x80\xda\x97\xef\xd0\xd4?'
tRp284
sg45
F4966.5868814004343
sg46
g30
(g32
S'T\xa6T\xf4\n\x92\xb3?'
tRp285
sg48
F16966.97134588737
sg49
g30
(g32
S'\x00\x00\x00\x00\x00\x00\x00\x00'
tRp286
sg51
g30
(g32
S'\x00\x00\x00\x00\x00\x00\x00\x00'
tRp287
sg53
g30
(g32
S'FP\x10L\xff\xae\xab?'
tRp288
stRp289
ss(I31
I150
I3000
tp290
(dp291
g4
(g5
((dtRp292
g5
((dp293
g8
F0
sg9
F0
sg10
F0
sg11
I0
sg12
I0
sg13
I0
sg14
I0
stRp294
tp295
sg17
(g5
((dtRp296
g5
((dp297
g8
F0
sg9
F0
sg10
F0
sg11
I0
sg12
I0
sg13
I0
sg14
I0
stRp298
tp299
sg22
(g5
((dtRp300
g5
((dp301
g8
F0
sg9
F0
sg10
F0
sg11
I0
sg12
I0
sg13
I0
sg14
I0
stRp302
tp303
sg27
g5
((dp304
g29
g30
(g32
S'(q\xac\x0bx\x03\x00A'
tRp305
sg34
g30
(g32
S'\xff\xff\xff\xff\xb9W.A'
tRp306
sg36
g30
(g32
S'\xd6\xfe\xc0`\x9d\x0b\xa2?'
tRp307
sg38
g30
(g32
S'\xf2ZBN\xce\x944A'
tRp308
sg40
F46847.542881951958
sg41
g30
(g32
S'\xcd\xcc\xccL_\x942A'
tRp309
sg43
g30
(g32
S'\x85\x1a\x9f\x91^\xb5\xd4?'
tRp310
sg45
F35042.875254984938
sg46
g30
(g32
S'*\xbbxf\xb4\x15\xb5?'
tRp311
sg48
F81890.41813693686
sg49
g30
(g32
S'\x00\x00\x00\x00\x00\x00\x00\x00'
tRp312
sg51
g30
(g32
S'\x00\x00\x00\x00\x00\x00\x00\x00'
tRp313
sg53
g30
(g32
S'\x82w0l\xcb\x1f\xa8?'
tRp314
stRp315
ss(I18
I150
I15
tp316
(dp317
g4
(g5
((dtRp318
g5
((dp319
g8
F0
sg9
F0
sg10
F0
sg11
I0
sg12
I0
sg13
I0
sg14
I0
stRp320
tp321
sg17
(g5
((dtRp322
g5
((dp323
g8
F0
sg9
F0
sg10
F0
sg11
I0
sg12
I0
sg13
I0
sg14
I0
stRp324
tp325
sg22
(g5
((dtRp326
g5
((dp327
g8
F0
sg9
F0
sg10
F0
sg11
I0
sg12
I0
sg13
I0
sg14
I0
stRp328
tp329
sg27
g5
((dp330
g29
g30
(g32
S'\x00S\x00\x8cJC\x0bA'
tRp331
sg34
g30
(g32
S'\xcd\xcc\xcc<\xed^eA'
tRp332
sg36
g30
(g32
S'>\xf0\x04F+\xbf\xb4?'
tRp333
sg38
g30
(g32
S'\xe6\x9a\xc9\xe3\x04\xf8gA'
tRp334
sg40
F1389629.7254087508
sg41
g30
(g32
S'\x9a\x99\x99\xb9\xf7\x8agA'
tRp335
sg43
g30
(g32
S'\xab,\xeaG\x86\xa3\xd2?'
tRp336
sg45
F908031.76691647572
sg46
g30
(g32
S'\xbaK\xb7_\xa0?\xca?'
tRp337
sg48
F2297661.4923252268
sg49
g30
(g32
S'\x00\x00\x00\x00\x00\x00\x00\x00'
tRp338
sg51
g30
(g32
S'\x00\x00\x00\x00\x00\x00\x00\x00'
tRp339
sg53
g30
(g32
S'5\xa7iy\x15\xc0\xbf?'
tRp340
stRp341
ss(I20
I150
I1500
tp342
(dp343
g4
(g5
((dtRp344
g5
((dp345
g8
F0
sg9
F0
sg10
F0
sg11
I0
sg12
I0
sg13
I0
sg14
I0
stRp346
tp347
sg17
(g5
((dtRp348
g5
((dp349
g8
F0
sg9
F0
sg10
F0
sg11
I0
sg12
I0
sg13
I0
sg14
I0
stRp350
tp351
sg22
(g5
((dtRp352
g5
((dp353
g8
F0
sg9
F0
sg10
F0
sg11
I0
sg12
I0
sg13
I0
sg14
I0
stRp354
tp355
sg27
g5
((dp356
g29
g30
(g32
S'Z\x8f\xc2\xf5\x08\x13\xc0@'
tRp357
sg34
g30
(g32
S'\x00\x00\x00\x00\x00\x8c\xae@'
tRp358
sg36
g30
(g32
S'\xaa$e\xb5\x16\xd8\x96?'
tRp359
sg38
g30
(g32
S'\xadG\xe1z\x84O\xd0@'
tRp360
sg40
F608.92316685657534
sg41
g30
(g32
S'\x00\x00\x00\x00\x00\x8c\xc0@'
tRp361
sg43
g30
(g32
S'\x0b\xf7\xfcK\xad\xd7\xe9?'
tRp362
sg45
F87.226970054605317
sg46
g30
(g32
S'x\xcfd=!\xca\xc6?'
tRp363
sg48
F696.15013691118065
sg49
g30
(g32
S'\x00\x00\x00\x00\x00\x00\x00\x00'
tRp364
sg51
g30
(g32
S'\x00\x00\x00\x00\x00\x00\x00\x00'
tRp365
sg53
g30
(g32
S'\xe3*\xb8f\x1e\xef\xc3?'
tRp366
stRp367
ss(I23
I150
I200
tp368
(dp369
g4
(g5
((dtRp370
g5
((dp371
g8
F0
sg9
F0
sg10
F0
sg11
I0
sg12
I0
sg13
I0
sg14
I0
stRp372
tp373
sg17
(g5
((dtRp374
g5
((dp375
g8
F0
sg9
F0
sg10
F0
sg11
I0
sg12
I0
sg13
I0
sg14
I0
stRp376
tp377
sg22
(g5
((dtRp378
g5
((dp379
g8
F0
sg9
F0
sg10
F0
sg11
I0
sg12
I0
sg13
I0
sg14
I0
stRp380
tp381
sg27
g5
((dp382
g29
g30
(g32
S'\x80Y\x0e-\xc8\xd7\xfd@'
tRp383
sg34
g30
(g32
S'\x00\x00\x00`\x83\x9eaA'
tRp384
sg36
g30
(g32
S'\xbb&h\xdf\x87\xc7\xb2?'
tRp385
sg38
g30
(g32
S'\xe7O\x8d\xd3PIdA'
tRp386
sg40
F988506.75244648638
sg41
g30
(g32
S'433C\xa1\rdA'
tRp387
sg43
g30
(g32
S'\xa5T\xf1\xc5\xb8p\xd2?'
tRp388
sg45
F677638.46376377414
sg46
g30
(g32
S'\x1c9%\x92C\x16\xc7?'
tRp389
sg48
F1666145.2162102608
sg49
g30
(g32
S'\x00\x00\x00\x00\x00\x00\x00\x00'
tRp390
sg51
g30
(g32
S'\x00\x00\x00\x00\x00\x00\x00\x00'
tRp391
sg53
g30
(g32
S'{K\xe2D\xffd\xbb?'
tRp392
stRp393
ss(I40
I150
I50
tp394
(dp395
g4
(g5
((dtRp396
g5
((dp397
g8
F0
sg9
F0
sg10
F0
sg11
I0
sg12
I0
sg13
I0
sg14
I0
stRp398
tp399
sg17
(g5
((dtRp400
g5
((dp401
g8
F0
sg9
F0
sg10
F0
sg11
I0
sg12
I0
sg13
I0
sg14
I0
stRp402
tp403
sg22
(g5
((dtRp404
g5
((dp405
g8
F0
sg9
F0
sg10
F0
sg11
I0
sg12
I0
sg13
I0
sg14
I0
stRp406
tp407
sg27
g5
((dp408
g29
g30
(g32
S'\x80\x9e;\xc8/\xe9\x05A'
tRp409
sg34
g30
(g32
S'333C\xc9\xc1pA'
tRp410
sg36
g30
(g32
S'(\xd7\xcc\xb0\xd25\xb5?'
tRp411
sg38
g30
(g32
S'\nD]\x14\x1b\xdbrA'
tRp412
sg40
F1485139.8371378398
sg41
g30
(g32
S'\xcd\xcc\xcc\xb4H\xafrA'
tRp413
sg43
g30
(g32
S'<:\x1c\xb5\xc5\xa4\xd0?'
tRp414
sg45
F1455798.7323844908
sg46
g30
(g32
S'9\x99\x80\x84\x8al\xc5?'
tRp415
sg48
F2940938.5695223301
sg49
g30
(g32
S'\x00\x00\x00\x00\x00\x00\x00\x00'
tRp416
sg51
g30
(g32
S'\x00\x00\x00\x00\x00\x00\x00\x00'
tRp417
sg53
g30
(g32
S'K[4XB\xa3\xb5?'
tRp418
stRp419
ss(I16
I150
I1000
tp420
(dp421
g4
(g5
((dtRp422
g5
((dp423
g8
F0
sg9
F0
sg10
F0
sg11
I0
sg12
I0
sg13
I0
sg14
I0
stRp424
tp425
sg17
(g5
((dtRp426
g5
((dp427
g8
F0
sg9
F0
sg10
F0
sg11
I0
sg12
I0
sg13
I0
sg14
I0
stRp428
tp429
sg22
(g5
((dtRp430
g5
((dp431
g8
F0
sg9
F0
sg10
F0
sg11
I0
sg12
I0
sg13
I0
sg14
I0
stRp432
tp433
sg27
g5
((dp434
g29
g30
(g32
S'\xc0QI\x9d}\xa0\xfe@'
tRp435
sg34
g30
(g32
S'333\xb3\xb378A'
tRp436
sg36
g30
(g32
S'\xa3\xd3\xdc\xc1\xf2]\xc8?'
tRp437
sg38
g30
(g32
S'zX\xa8\x89\xdafQA'
tRp438
sg40
F333790.54435174417
sg41
g30
(g32
S'333\x93X\xecPA'
tRp439
sg43
g30
(g32
S'\x87\x02\xc5\x8d\xd8S\xe9?'
tRp440
sg45
F302136.09434988099
sg46
g30
(g32
S';607\xb8\xa4\xd9?'
tRp441
sg48
F635926.63870162528
sg49
g30
(g32
S'\x00\x00\x00\x00\x00\x00\x00\x00'
tRp442
sg51
g30
(g32
S'\x00\x00\x00\x00\x00\x00\x00\x00'
tRp443
sg53
g30
(g32
S'\xd1\x98\x83\xac}\xeb\xca?'
tRp444
stRp445
ss(I36
I150
I4000
tp446
(dp447
g4
(g5
((dtRp448
g5
((dp449
g8
F0
sg9
F0
sg10
F0
sg11
I0
sg12
I0
sg13
I0
sg14
I0
stRp450
tp451
sg17
(g5
((dtRp452
g5
((dp453
g8
F0
sg9
F0
sg10
F0
sg11
I0
sg12
I0
sg13
I0
sg14
I0
stRp454
tp455
sg22
(g5
((dtRp456
g5
((dp457
g8
F0
sg9
F0
sg10
F0
sg11
I0
sg12
I0
sg13
I0
sg14
I0
stRp458
tp459
sg27
g5
((dp460
g29
g30
(g32
S'\x80\x1a/\xdd\xaeM\xf6@'
tRp461
sg34
g30
(g32
S'\xff\xff\xff\xff\x07\xde!A'
tRp462
sg36
g30
(g32
S'L\xb3x\xfdK\x06\xa0?'
tRp463
sg38
g30
(g32
S"P\xe3\xa5\xdb\xc2\xf9'A"
tRp464
sg40
F31301.948657864014
sg41
g30
(g32
S'\x00\x00\x00\x00\r0%A'
tRp465
sg43
g30
(g32
S'\xc5\xf6\x8dy\x1dY\xd4?'
tRp466
sg45
F18324.251881398217
sg46
g30
(g32
S'\xfcb\xe3\xc8\xf8\xb2\xb5?'
tRp467
sg48
F49626.200539262216
sg49
g30
(g32
S'\x00\x00\x00\x00\x00\x00\x00\x00'
tRp468
sg51
g30
(g32
S'\x00\x00\x00\x00\x00\x00\x00\x00'
tRp469
sg53
g30
(g32
S'\xaf\x12N\x94\xa5_\xab?'
tRp470
stRp471
ss(I22
I150
I20
tp472
(dp473
g4
(g5
((dtRp474
g5
((dp475
g8
F0
sg9
F0
sg10
F0
sg11
I0
sg12
I0
sg13
I0
sg14
I0
stRp476
tp477
sg17
(g5
((dtRp478
g5
((dp479
g8
F0
sg9
F0
sg10
F0
sg11
I0
sg12
I0
sg13
I0
sg14
I0
stRp480
tp481
sg22
(g5
((dtRp482
g5
((dp483
g8
F0
sg9
F0
sg10
F0
sg11
I0
sg12
I0
sg13
I0
sg14
I0
stRp484
tp485
sg27
g5
((dp486
g29
g30
(g32
S'\x00\xeeP\x94\xd6\xa1\nA'
tRp487
sg34
g30
(g32
S'\xff\xff\xff\xcf\xa9\x18nA'
tRp488
sg36
g30
(g32
S'x0$\x10\x1d\xa4\xb6?'
tRp489
sg38
g30
(g32
S'v;\xc2\xe6v\xbbpA'
tRp490
sg40
F1657157.1816011167
sg41
g30
(g32
S'\x9a\x99\x9993\x86pA'
tRp491
sg43
g30
(g32
S'r\xe38\xa5\xbb\x93\xd1?'
tRp492
sg45
F1395534.4797708234
sg46
g30
(g32
S'\xcbZ\x04\x84j\xc3\xc8?'
tRp493
sg48
F3052691.6613719403
sg49
g30
(g32
S'\x00\x00\x00\x00\x00\x00\x00\x00'
tRp494
sg51
g30
(g32
S'\x00\x00\x00\x00\x00\x00\x00\x00'
tRp495
sg53
g30
(g32
S'\x1e\x85\xe4\xf7\xb7\xe2\xba?'
tRp496
stRp497
ss(I6
I40
I300
tp498
(dp499
g4
(g5
((dtRp500
g5
((dp501
g8
F0
sg9
F0
sg10
F0
sg11
I0
sg12
I0
sg13
I0
sg14
I0
stRp502
tp503
sg17
(g5
((dtRp504
g5
((dp505
g8
F0
sg9
F0
sg10
F0
sg11
I0
sg12
I0
sg13
I0
sg14
I0
stRp506
tp507
sg22
(g5
((dtRp508
g5
((dp509
g8
F0
sg9
F0
sg10
F0
sg11
I0
sg12
I0
sg13
I0
sg14
I0
stRp510
tp511
sg27
g5
((dp512
g29
g30
(g32
S'XY/\x86fH\xf4@'
tRp513
sg34
g30
(g32
S'\xcc\xcc\xcc\xcc\x85\x9a A'
tRp514
sg36
g30
(g32
S'\x93Rsm`\x0b\xb5?'
tRp515
sg38
g30
(g32
S'+\xeb\xc5\xd0v\xac%A'
tRp516
sg40
F39179.758462245663
sg41
g30
(g32
S'\x00\x00\x00\x00j##A'
tRp517
sg43
g30
(g32
S'}\xd8q\xf1O\x88\xd6?'
tRp518
sg45
F44724.934753779751
sg46
g30
(g32
S'5\xc8\xc7\x04g\xbd\xc3?'
tRp519
sg48
F83904.693216025393
sg49
g30
(g32
S'\x00\x00\x00\x00\x00\x00\x00\x00'
tRp520
sg51
g30
(g32
S'\x00\x00\x00\x00\x00\x00\x00\x00'
tRp521
sg53
g30
(g32
S'\xda=\x1c\x9cmo\xb2?'
tRp522
stRp523
ss(I9
I60
I300
tp524
(dp525
g4
(g5
((dtRp526
g5
((dp527
g8
F0
sg9
F0
sg10
F0
sg11
I0
sg12
I0
sg13
I0
sg14
I0
stRp528
tp529
sg17
(g5
((dtRp530
g5
((dp531
g8
F0
sg9
F0
sg10
F0
sg11
I0
sg12
I0
sg13
I0
sg14
I0
stRp532
tp533
sg22
(g5
((dtRp534
g5
((dp535
g8
F0
sg9
F0
sg10
F0
sg11
I0
sg12
I0
sg13
I0
sg14
I0
stRp536
tp537
sg27
g5
((dp538
g29
g30
(g32
S'\xb0\x1c\xc9\xe5\xe4i\xf8@'
tRp539
sg34
g30
(g32
S'\x00\x00\x00\x00\xadA:A'
tRp540
sg36
g30
(g32
S'\xe6\r\x90\xaeq{\xbe?'
tRp541
sg38
g30
(g32
S'L\xaf\x94MM\xb5@A'
tRp542
sg40
F145229.85809270054
sg41
g30
(g32
S'\xcd\xcc\xccL\xfc\xe3?A'
tRp543
sg43
g30
(g32
S'?\xe6\x9bB\xda\xf1\xd7?'
tRp544
sg45
F204891.48833888496
sg46
g30
(g32
S'\xf3\x1f\x03\xbdP\x0b\xca?'
tRp545
sg48
F350121.34643158544
sg49
g30
(g32
S'\x00\x00\x00\x00\x00\x00\x00\x00'
tRp546
sg51
g30
(g32
S'\x00\x00\x00\x00\x00\x00\x00\x00'
tRp547
sg53
g30
(g32
S'\x022v\xcb/\x9b\xb5?'
tRp548
stRp549
ss(I1
I10
I300
tp550
(dp551
g4
(g5
((dtRp552
g5
((dp553
g8
F0
sg9
F0
sg10
F0
sg11
I0
sg12
I0
sg13
I0
sg14
I0
stRp554
tp555
sg17
(g5
((dtRp556
g5
((dp557
g8
F0
sg9
F0
sg10
F0
sg11
I0
sg12
I0
sg13
I0
sg14
I0
stRp558
tp559
sg22
(g5
((dtRp560
g5
((dp561
g8
F0
sg9
F0
sg10
F0
sg11
I0
sg12
I0
sg13
I0
sg14
I0
stRp562
tp563
sg27
g5
((dp564
g29
g30
(g32
S'\xf3\xe6\x8c(I\xc5\xd1@'
tRp565
sg34
g30
(g32
S'ffff\xa6d\xd1@'
tRp566
sg36
g30
(g32
S'\xb9o\x88\xadE\x1b\xab?'
tRp567
sg38
g30
(g32
S'\xad\xa6y\xc77\xfc\xe2@'
tRp568
sg40
F2705.5767124020399
sg41
g30
(g32
S'gfff&3\xd4@'
tRp569
sg43
g30
(g32
S'\xb4\x89"\x1e0X\xe4?'
tRp570
sg45
F942.93671473707582
sg46
g30
(g32
S'\x98N=\x02\x8c8\xca?'
tRp571
sg48
F3648.5134271391157
sg49
g30
(g32
S'\x00\x00\x00\x00\x00\x00\x00\x00'
tRp572
sg51
g30
(g32
S'\x00\x00\x00\x00\x00\x00\x00\x00'
tRp573
sg53
g30
(g32
S'\xa92\xdb\x96\xbaq\xc3?'
tRp574
stRp575
ss(I50
I150
I800
tp576
(dp577
g4
(g5
((dtRp578
g5
((dp579
g8
F0
sg9
F0
sg10
F0
sg11
I0
sg12
I0
sg13
I0
sg14
I0
stRp580
tp581
sg17
(g5
((dtRp582
g5
((dp583
g8
F0
sg9
F0
sg10
F0
sg11
I0
sg12
I0
sg13
I0
sg14
I0
stRp584
tp585
sg22
(g5
((dtRp586
g5
((dp587
g8
F0
sg9
F0
sg10
F0
sg11
I0
sg12
I0
sg13
I0
sg14
I0
stRp588
tp589
sg27
g5
((dp590
g29
g30
(g32
S'\xc0\x96H\xe2\xddI\x07A'
tRp591
sg34
g30
(g32
S'333\xb3\xc5tHA'
tRp592
sg36
g30
(g32
S'u\x0c\\\x84\x9b\x02\xc2?'
tRp593
sg38
g30
(g32
S'["\x89w\x92\x1acA'
tRp594
sg40
F476607.76629868243
sg41
g30
(g32
S'\x00\x00\x00\x00k\xbdbA'
tRp595
sg43
g30
(g32
S'4X\x02\x88\xec\xb8\xe8?'
tRp596
sg45
F451030.67954745149
sg46
g30
(g32
S'\xa1\\\xf4;V\x85\xd2?'
tRp597
sg48
F927638.44584613387
sg49
g30
(g32
S'\x00\x00\x00\x00\x00\x00\x00\x00'
tRp598
sg51
g30
(g32
S'\x00\x00\x00\x00\x00\x00\x00\x00'
tRp599
sg53
g30
(g32
S'\xcf\xac\x8c\xf3\x10\x08\xc3?'
tRp600
stRp601
ss(I5
I35
I300
tp602
(dp603
g4
(g5
((dtRp604
g5
((dp605
g8
F0
sg9
F0
sg10
F0
sg11
I0
sg12
I0
sg13
I0
sg14
I0
stRp606
tp607
sg17
(g5
((dtRp608
g5
((dp609
g8
F0
sg9
F0
sg10
F0
sg11
I0
sg12
I0
sg13
I0
sg14
I0
stRp610
tp611
sg22
(g5
((dtRp612
g5
((dp613
g8
F0
sg9
F0
sg10
F0
sg11
I0
sg12
I0
sg13
I0
sg14
I0
stRp614
tp615
sg27
g5
((dp616
g29
g30
(g32
S'\\\x11S\xa2\x18\xde\xf2@'
tRp617
sg34
g30
(g32
S'efff\xfa\x05\x18A'
tRp618
sg36
g30
(g32
S'\xcfC\xd9\x1c\xa2\xf4\xb1?'
tRp619
sg38
g30
(g32
S'\xf8.\x17\xe1\x90I A'
tRp620
sg40
F21800.467598125164
sg41
g30
(g32
S'\x99\x99\x99\x99\x9b\xdb\x1bA'
tRp621
sg43
g30
(g32
S'*NA\x17\xca\xb9\xd6?'
tRp622
sg45
F27606.634719461465
sg46
g30
(g32
S'$T%\x9eA\x11\xc0?'
tRp623
sg48
F49407.102317586643
sg49
g30
(g32
S'\x00\x00\x00\x00\x00\x00\x00\x00'
tRp624
sg51
g30
(g32
S'\x00\x00\x00\x00\x00\x00\x00\x00'
tRp625
sg53
g30
(g32
S'\xef\xc8\xe2>\xc2[\xac?'
tRp626
stRp627
ss(I35
I150
I400
tp628
(dp629
g4
(g5
((dtRp630
g5
((dp631
g8
F0
sg9
F0
sg10
F0
sg11
I0
sg12
I0
sg13
I0
sg14
I0
stRp632
tp633
sg17
(g5
((dtRp634
g5
((dp635
g8
F0
sg9
F0
sg10
F0
sg11
I0
sg12
I0
sg13
I0
sg14
I0
stRp636
tp637
sg22
(g5
((dtRp638
g5
((dp639
g8
F0
sg9
F0
sg10
F0
sg11
I0
sg12
I0
sg13
I0
sg14
I0
stRp640
tp641
sg27
g5
((dp642
g29
g30
(g32
S'\xc0\xb5\x85 \xae\xc6\x04A'
tRp643
sg34
g30
(g32
S'\x00\x00\x00\xa0\xef\x8agA'
tRp644
sg36
g30
(g32
S'\x98;\xed\xe9\x85\x1d\xb6?'
tRp645
sg38
g30
(g32
S'=}\xe8>\xd4SnA'
tRp646
sg40
F1266162.5270744199
sg41
g30
(g32
S'fff\x86\xb9\x00nA'
tRp647
sg43
g30
(g32
S'Qf\x10\x81\xc7\xb4\xd7?'
tRp648
sg45
F1066301.1746689444
sg46
g30
(g32
S'\x1ee\xa4\xd0\x1a0\xc8?'
tRp649
sg48
F2332463.7017433648
sg49
g30
(g32
S'\x00\x00\x00\x00\x00\x00\x00\x00'
tRp650
sg51
g30
(g32
S'\x00\x00\x00\x00\x00\x00\x00\x00'
tRp651
sg53
g30
(g32
S'\xa2\x8e[\xb7\xafB\xba?'
tRp652
stRp653
ss(I39
I150
I4750
tp654
(dp655
g4
(g5
((dtRp656
g5
((dp657
g8
F0
sg9
F0
sg10
F0
sg11
I0
sg12
I0
sg13
I0
sg14
I0
stRp658
tp659
sg17
(g5
((dtRp660
g5
((dp661
g8
F0
sg9
F0
sg10
F0
sg11
I0
sg12
I0
sg13
I0
sg14
I0
stRp662
tp663
sg22
(g5
((dtRp664
g5
((dp665
g8
F0
sg9
F0
sg10
F0
sg11
I0
sg12
I0
sg13
I0
sg14
I0
stRp666
tp667
sg27
g5
((dp668
g29
g30
(g32
S'\x14\\\x8f\xc2\x85\xbd\xe4@'
tRp669
sg34
g30
(g32
S'\x99\x99\x99\x99U.\x08A'
tRp670
sg36
g30
(g32
S't\xbe\xd2\xce\xb0>\x9f?'
tRp671
sg38
g30
(g32
S'\xb6\x1e\x85\xeb\xa5\xbf\x10A'
tRp672
sg40
F13681.493345886332
sg41
g30
(g32
S'gfff\xeaO\x0cA'
tRp673
sg43
g30
(g32
S'G}\x08\xf6xf\xd6?'
tRp674
sg45
F6044.2589992718385
sg46
g30
(g32
S'&\xee\t\x0b\t~\xb9?'
tRp675
sg48
F19725.752345158173
sg49
g30
(g32
S'\x00\x00\x00\x00\x00\x00\x00\x00'
tRp676
sg51
g30
(g32
S'\x00\x00\x00\x00\x00\x00\x00\x00'
tRp677
sg53
g30
(g32
S'\x89>U\xd7\\\xae\xb1?'
tRp678
stRp679
ss(I51
I150
I900
tp680
(dp681
g4
(g5
((dtRp682
g5
((dp683
g8
F0
sg9
F0
sg10
F0
sg11
I0
sg12
I0
sg13
I0
sg14
I0
stRp684
tp685
sg17
(g5
((dtRp686
g5
((dp687
g8
F0
sg9
F0
sg10
F0
sg11
I0
sg12
I0
sg13
I0
sg14
I0
stRp688
tp689
sg22
(g5
((dtRp690
g5
((dp691
g8
F0
sg9
F0
sg10
F0
sg11
I0
sg12
I0
sg13
I0
sg14
I0
stRp692
tp693
sg27
g5
((dp694
g29
g30
(g32
S' \xc2\x12\x0fmo\x04A'
tRp695
sg34
g30
(g32
S'\xcd\xcc\xccL\xf8G>A'
tRp696
sg38
g30
(g32
S'D\xc9\xab\xfbk\xff\\A'
tRp697
sg40
F418881.01213954971
sg41
g30
(g32
S'333\x93\xf0[\\A'
tRp698
sg53
g30
(g32
S'3\xfb"\xe7\x88\x04\xcb?'
tRp699
sS'overestimates_nonoptimal'
p700
F417178.01115569659
sg46
g30
(g32
S'\xa7L`C\x1f\xb7\xd9?'
tRp701
sg48
F797377.57313197618
sS'L1_error_nonoptimal'
p702
F795335.1792888667
sg36
g30
(g32
S'\x1c\x9e\x9d\x9f\xb5i\xc8?'
tRp703
sg49
g30
(g32
S'\x00\x00\x00\x00\x00\x00\x00\x00'
tRp704
sg43
g30
(g32
S'XE\x18B\xab\x00\xeb?'
tRp705
sS'underestimates_nonoptimal'
p706
F378157.16813317017
sg51
g30
(g32
S'\x00\x00\x00\x00\x00\x00\x00\x00'
tRp707
sg45
F378496.56099242659
stRp708
ss(I17
I150
I1250
tp709
(dp710
g4
(g5
((dtRp711
g5
((dp712
g8
F0
sg9
F0
sg10
F0
sg11
I0
sg12
I0
sg13
I0
sg14
I0
stRp713
tp714
sg17
(g5
((dtRp715
g5
((dp716
g8
F0
sg9
F0
sg10
F0
sg11
I0
sg12
I0
sg13
I0
sg14
I0
stRp717
tp718
sg22
(g5
((dtRp719
g5
((dp720
g8
F0
sg9
F0
sg10
F0
sg11
I0
sg12
I0
sg13
I0
sg14
I0
stRp721
tp722
sg27
g5
((dp723
g29
g30
(g32
S'P;\xdfO5H\xd5@'
tRp724
sg34
g30
(g32
S'\x00\x00\x00\x00\x80+\xec@'
tRp725
sg36
g30
(g32
S'\xfc\x99\xf0v\xdd\xc0\xcc?'
tRp726
sg38
g30
(g32
S'\xd0Mb\x10\xd1\xd5\x07A'
tRp727
sg40
F1596.4908092034498
sg41
g30
(g32
S'ffff\xca,\x05A'
tRp728
sg43
g30
(g32
S'\x90\x1d\xd3\xac?\xee\xe8?'
tRp729
sg45
F12959.687168146393
sg46
g30
(g32
S'\x94\xb8wB\xd2%\xd0?'
tRp730
sg48
F14556.177977349842
sg49
g30
(g32
S'\x00\x00\x00\x00\x00\x00\x00\x00'
tRp731
sg51
g30
(g32
S'\x00\x00\x00\x00\x00\x00\x00\x00'
tRp732
sg53
g30
(g32
S'Y\xb9\xf6o8V\x9c?'
tRp733
stRp734
ss(I12
I125
I300
tp735
(dp736
g4
(g5
((dtRp737
g5
((dp738
g8
F0
sg9
F0
sg10
F0
sg11
I0
sg12
I0
sg13
I0
sg14
I0
stRp739
tp740
sg17
(g5
((dtRp741
g5
((dp742
g8
F0
sg9
F0
sg10
F0
sg11
I0
sg12
I0
sg13
I0
sg14
I0
stRp743
tp744
sg22
(g5
((dtRp745
g5
((dp746
g8
F0
sg9
F0
sg10
F0
sg11
I0
sg12
I0
sg13
I0
sg14
I0
stRp747
tp748
sg27
g5
((dp749
g29
g30
(g32
S'\x004F\xebo\x13\xf1@'
tRp750
sg34
g30
(g32
S'\xcc\xcc\xccL\x9f\xc83A'
tRp751
sg36
g30
(g32
S'&\xd1\xa9\xfe\xd8\xe5\xbc?'
tRp752
sg38
g30
(g32
S's\x96\xe7\xb1\xe3\x01:A'
tRp753
sg40
F112726.66064019644
sg41
g30
(g32
S'333\xb3\xac\xf08A'
tRp754
sg43
g30
(g32
S'(\xb5\x8a\x12A\x0b\xd9?'
tRp755
sg45
F146356.65568066001
sg46
g30
(g32
S'\xa3\xbe\x90\xa1\xe7\x93\xc9?'
tRp756
sg48
F259083.31632085645
sg49
g30
(g32
S'\x00\x00\x00\x00\x00\x00\x00\x00'
tRp757
sg51
g30
(g32
S'\x00\x00\x00\x00\x00\x00\x00\x00'
tRp758
sg53
g30
(g32
S'!\xacwD\xf6A\xb6?'
tRp759
stRp760
ss(I3
I25
I300
tp761
(dp762
g4
(g5
((dtRp763
g5
((dp764
g8
F0
sg9
F0
sg10
F0
sg11
I0
sg12
I0
sg13
I0
sg14
I0
stRp765
tp766
sg17
(g5
((dtRp767
g5
((dp768
g8
F0
sg9
F0
sg10
F0
sg11
I0
sg12
I0
sg13
I0
sg14
I0
stRp769
tp770
sg22
(g5
((dtRp771
g5
((dp772
g8
F0
sg9
F0
sg10
F0
sg11
I0
sg12
I0
sg13
I0
sg14
I0
stRp773
tp774
sg27
g5
((dp775
g29
g30
(g32
S'\xa8\xa2#\xb9\xd6\x16\xe3@'
tRp776
sg34
g30
(g32
S'\x9a\x99\x99\x99A\xb8\xf2@'
tRp777
sg36
g30
(g32
S'VnFGM\x07\x9c?'
tRp778
sg38
g30
(g32
S'\xedj+\xf6\x8cS\xfe@'
tRp779
sg40
F7789.9634464440778
sg41
g30
(g32
S'\x99\x99\x99\x99!\xc8\xf4@'
tRp780
sg43
g30
(g32
S'g\xfb)x\xd9\x96\xdd?'
tRp781
sg45
F2098.7478775939389
sg46
g30
(g32
S'\xd2@fP\x00\x82\xc0?'
tRp782
sg48
F9888.7113240380186
sg49
g30
(g32
S'\x00\x00\x00\x00\x00\x00\x00\x00'
tRp783
sg51
g30
(g32
S'\x00\x00\x00\x00\x00\x00\x00\x00'
tRp784
sg53
g30
(g32
S'\r\xe6\xfaN-\x02\xba?'
tRp785
stRp786
ss(I14
I150
I10
tp787
(dp788
g4
(g5
((dtRp789
g5
((dp790
g8
F0
sg9
F0
sg10
F0
sg11
I0
sg12
I0
sg13
I0
sg14
I0
stRp791
tp792
sg17
(g5
((dtRp793
g5
((dp794
g8
F0
sg9
F0
sg10
F0
sg11
I0
sg12
I0
sg13
I0
sg14
I0
stRp795
tp796
sg22
(g5
((dtRp797
g5
((dp798
g8
F0
sg9
F0
sg10
F0
sg11
I0
sg12
I0
sg13
I0
sg14
I0
stRp799
tp800
sg27
g5
((dp801
g29
g30
(g32
S' \x88.(\xa9e\x07A'
tRp802
sg34
g30
(g32
S'fff\xe6s\xafGA'
tRp803
sg36
g30
(g32
S'\xe3\xa0(F]\xeb\xb3?'
tRp804
sg38
g30
(g32
S'O\xb5O_X8MA'
tRp805
sg40
F379204.59635659948
sg41
g30
(g32
S'\xcd\xcc\xcc\xcc\xfd\xc1KA'
tRp806
sg43
g30
(g32
S')\x86\x97d\xf0~\xd6?'
tRp807
sg45
F241560.5837688793
sg46
g30
(g32
S'`5\xc6\xe53\x98\xc9?'
tRp808
sg48
F620765.18012547877
sg49
g30
(g32
S'\x00\x00\x00\x00\x00\x00\x00\x00'
tRp809
sg51
g30
(g32
S'\x00\x00\x00\x00\x00\x00\x00\x00'
tRp810
sg53
g30
(g32
S'\xde\xc9c\x85\nE\xbf?'
tRp811
stRp812
ss(I42
I150
I5000
tp813
(dp814
g4
(g5
((dtRp815
g5
((dp816
g8
F0
sg9
F0
sg10
F0
sg11
I0
sg12
I0
sg13
I0
sg14
I0
stRp817
tp818
sg17
(g5
((dtRp819
g5
((dp820
g8
F0
sg9
F0
sg10
F0
sg11
I0
sg12
I0
sg13
I0
sg14
I0
stRp821
tp822
sg22
(g5
((dtRp823
g5
((dp824
g8
F0
sg9
F0
sg10
F0
sg11
I0
sg12
I0
sg13
I0
sg14
I0
stRp825
tp826
sg27
g5
((dp827
g29
g30
(g32
S'\xa4E\xb6\xf3\x05\xc1\xe7@'
tRp828
sg34
g30
(g32
S'\xff\xff\xff\xff\xa3\xd3\x06A'
tRp829
sg36
g30
(g32
S'\xaf\x91\x8ax\xcc\x02\x9d?'
tRp830
sg38
g30
(g32
S'\xe8\xfb\xa9\xf1\x8d*\x10A'
tRp831
sg40
F10438.767257311405
sg41
g30
(g32
S'gfff\xdad\nA'
tRp832
sg43
g30
(g32
S'\x8f1w\x8cP\x9e\xd6?'
tRp833
sg45
F5297.7957373856607
sg46
g30
(g32
S'\xf1&5-#\x8b\xb5?'
tRp834
sg48
F15736.562994697066
sg49
g30
(g32
S'\x00\x00\x00\x00\x00\x00\x00\x00'
tRp835
sg51
g30
(g32
S'\x00\x00\x00\x00\x00\x00\x00\x00'
tRp836
sg53
g30
(g32
S'\n\x05%\x1e\xe0\x94\xac?'
tRp837
stRp838
ss(I25
I150
I2250
tp839
(dp840
g4
(g5
((dtRp841
g5
((dp842
g8
F0
sg9
F0
sg10
F0
sg11
I0
sg12
I0
sg13
I0
sg14
I0
stRp843
tp844
sg17
(g5
((dtRp845
g5
((dp846
g8
F0
sg9
F0
sg10
F0
sg11
I0
sg12
I0
sg13
I0
sg14
I0
stRp847
tp848
sg22
(g5
((dtRp849
g5
((dp850
g8
F0
sg9
F0
sg10
F0
sg11
I0
sg12
I0
sg13
I0
sg14
I0
stRp851
tp852
sg27
g5
((dp853
g29
g30
(g32
S'\xf0\xb7\x066h\x1a\xf8@'
tRp854
sg34
g30
(g32
S'63333s\x1cA'
tRp855
sg36
g30
(g32
S'Jm\xc2CN;\xa6?'
tRp856
sg38
g30
(g32
S'\xfe\xd6\xc0\x06<\xb8$A'
tRp857
sg40
F22868.107519381174
sg41
g30
(g32
S'\x00\x00\x00\x00\xef\xb4!A'
tRp858
sg43
g30
(g32
S':\xceR\x84\xe5\x1f\xd8?'
tRp859
sg45
F20239.705971826959
sg46
g30
(g32
S'\xcf\n9>\xda\xac\xb7?'
tRp860
sg48
F43107.813491208137
sg49
g30
(g32
S'\x00\x00\x00\x00\x00\x00\x00\x00'
tRp861
sg51
g30
(g32
S'\x00\x00\x00\x00\x00\x00\x00\x00'
tRp862
sg53
g30
(g32
S'R\xa8\xaf8f\x1e\xa9?'
tRp863
stRp864
ss(I44
I150
I5500
tp865
(dp866
g4
(g5
((dtRp867
g5
((dp868
g8
F0
sg9
F0
sg10
F0
sg11
I0
sg12
I0
sg13
I0
sg14
I0
stRp869
tp870
sg17
(g5
((dtRp871
g5
((dp872
g8
F0
sg9
F0
sg10
F0
sg11
I0
sg12
I0
sg13
I0
sg14
I0
stRp873
tp874
sg22
(g5
((dtRp875
g5
((dp876
g8
F0
sg9
F0
sg10
F0
sg11
I0
sg12
I0
sg13
I0
sg14
I0
stRp877
tp878
sg27
g5
((dp879
g29
g30
(g32
S' \xdb\xf9~J@\xe0@'
tRp880
sg34
g30
(g32
S'\xcd\xcc\xcc\xccd\xab\xfc@'
tRp881
sg36
g30
(g32
S'\x1cj~\x84\x94\xb1\xa3?'
tRp882
sg38
g30
(g32
S'\xc7v\xbe\x9f\xe2p\x04A'
tRp883
sg40
F10984.789189068928
sg41
g30
(g32
S'\xff\xff\xff\xff\xcf`\x00A'
tRp884
sg43
g30
(g32
S'F\xf0\xe5\xbd\x04\x0b\xd9?'
tRp885
sg45
F4516.8630149875135
sg46
g30
(g32
S'_\xaf])\x9d\xe5\xc0?'
tRp886
sg48
F15501.65220405644
sg49
g30
(g32
S'\x00\x00\x00\x00\x00\x00\x00\x00'
tRp887
sg51
g30
(g32
S'\x00\x00\x00\x00\x00\x00\x00\x00'
tRp888
sg53
g30
(g32
S'\xb1)|\x10p\xf2\xb7?'
tRp889
stRp890
ss(I48
I150
I700
tp891
(dp892
g4
(g5
((dtRp893
g5
((dp894
g8
F0
sg9
F0
sg10
F0
sg11
I0
sg12
I0
sg13
I0
sg14
I0
stRp895
tp896
sg17
(g5
((dtRp897
g5
((dp898
g8
F0
sg9
F0
sg10
F0
sg11
I0
sg12
I0
sg13
I0
sg14
I0
stRp899
tp900
sg22
(g5
((dtRp901
g5
((dp902
g8
F0
sg9
F0
sg10
F0
sg11
I0
sg12
I0
sg13
I0
sg14
I0
stRp903
tp904
sg27
g5
((dp905
g29
g30
(g32
S'\xc0\x08\x81\x95\xaf]\x08A'
tRp906
sg34
g30
(g32
S'\xcd\xcc\xcc\xacD\xa3YA'
tRp907
sg36
g30
(g32
S'\xabJ\xd92\xad\n\xbd?'
tRp908
sg38
g30
(g32
S'\xbd\x9d\xef\xe7\xc8\xe6hA'
tRp909
sg40
F827402.33299139352
sg41
g30
(g32
S'\x9a\x99\x99)R\x85hA'
tRp910
sg43
g30
(g32
S'\x12:\t\xb3xl\xe3?'
tRp911
sg45
F762434.01068169146
sg46
g30
(g32
S'\xac\xbe\xb8\xf8oG\xce?'
tRp912
sg48
F1589836.3436730853
sg49
g30
(g32
S'\x00\x00\x00\x00\x00\x00\x00\x00'
tRp913
sg51
g30
(g32
S'\x00\x00\x00\x00\x00\x00\x00\x00'
tRp914
sg53
g30
(g32
S'\xa92\x98\xbe2\x84\xbf?'
tRp915
stRp916
ss(I38
I150
I4500
tp917
(dp918
g4
(g5
((dtRp919
g5
((dp920
g8
F0
sg9
F0
sg10
F0
sg11
I0
sg12
I0
sg13
I0
sg14
I0
stRp921
tp922
sg17
(g5
((dtRp923
g5
((dp924
g8
F0
sg9
F0
sg10
F0
sg11
I0
sg12
I0
sg13
I0
sg14
I0
stRp925
tp926
sg22
(g5
((dtRp927
g5
((dp928
g8
F0
sg9
F0
sg10
F0
sg11
I0
sg12
I0
sg13
I0
sg14
I0
stRp929
tp930
sg27
g5
((dp931
g29
g30
(g32
S'\xb4@\x82\xe2i\xc3\xe5@'
tRp932
sg34
g30
(g32
S'ffff\xbe~\x05A'
tRp933
sg36
g30
(g32
S'B\xdd\xb4\xf4\x13\xeb\xa0?'
tRp934
sg38
g30
(g32
S'\x94\xf6\x06\xdf\x84\xb9\rA'
tRp935
sg40
F13117.270867802201
sg41
g30
(g32
S'gfff\xaaH\x08A'
tRp936
sg43
g30
(g32
S'\xd3\xf3\xb7\xe0)\xb2\xd6?'
tRp937
sg45
F5818.5576501085225
sg46
g30
(g32
S'w\xec\x99\x8b\x7f\x87\xbb?'
tRp938
sg48
F18935.828517910726
sg49
g30
(g32
S'\x00\x00\x00\x00\x00\x00\x00\x00'
tRp939
sg51
g30
(g32
S'\x00\x00\x00\x00\x00\x00\x00\x00'
tRp940
sg53
g30
(g32
S'\xd4}?\x91\xf5\x11\xb3?'
tRp941
stRp942
ss(I8
I50
I300
tp943
(dp944
g4
(g5
((dtRp945
g5
((dp946
g8
F0
sg9
F0
sg10
F0
sg11
I0
sg12
I0
sg13
I0
sg14
I0
stRp947
tp948
sg17
(g5
((dtRp949
g5
((dp950
g8
F0
sg9
F0
sg10
F0
sg11
I0
sg12
I0
sg13
I0
sg14
I0
stRp951
tp952
sg22
(g5
((dtRp953
g5
((dp954
g8
F0
sg9
F0
sg10
F0
sg11
I0
sg12
I0
sg13
I0
sg14
I0
stRp955
tp956
sg27
g5
((dp957
g29
g30
(g32
S' \xaeLx \xde\xf4@'
tRp958
sg34
g30
(g32
S'ffff\xf26.A'
tRp959
sg36
g30
(g32
S'\xf3\xd3Z\xb8\x0b\xca\xb8?'
tRp960
sg38
g30
(g32
S'{d\x1e\xa1\x9f/3A'
tRp961
sg40
F87531.688127264875
sg41
g30
(g32
S'\x99\x99\x99\x99\xbd\xe11A'
tRp962
sg43
g30
(g32
S'\r\x88E\xc9\xd6\xf0\xd6?'
tRp963
sg45
F95871.732399206085
sg46
g30
(g32
S"\xa6'\x02\xe7\x04\xb6\xc7?"
tRp964
sg48
F183403.42052647096
sg49
g30
(g32
S'\x00\x00\x00\x00\x00\x00\x00\x00'
tRp965
sg51
g30
(g32
S'\x00\x00\x00\x00\x00\x00\x00\x00'
tRp966
sg53
g30
(g32
S'Z{\xa9\x15\xfe\xa1\xb6?'
tRp967
stRp968
ss(I13
I150
I300
tp969
(dp970
g4
(g5
((dtRp971
g5
((dp972
g8
F0
sg9
F0
sg10
F0
sg11
I0
sg12
I0
sg13
I0
sg14
I0
stRp973
tp974
sg17
(g5
((dtRp975
g5
((dp976
g8
F0
sg9
F0
sg10
F0
sg11
I0
sg12
I0
sg13
I0
sg14
I0
stRp977
tp978
sg22
(g5
((dtRp979
g5
((dp980
g8
F0
sg9
F0
sg10
F0
sg11
I0
sg12
I0
sg13
I0
sg14
I0
stRp981
tp982
sg27
g5
((dp983
g29
g30
(g32
S'\xe0K\x8e\xbb\r\xec\xf0@'
tRp984
sg34
g30
(g32
S'\xcd\xcc\xcc\xcc\x94r2A'
tRp985
sg36
g30
(g32
S'\x8bd\x7f\xc1Uw\xc0?'
tRp986
sg38
g30
(g32
S'\xf1\x17\xec\x0e\x11\xb68A'
tRp987
sg40
F98981.450067035315
sg41
g30
(g32
S'3333P\xa77A'
tRp988
sg43
g30
(g32
S'\x9b\x84\x83\x06\xb6G\xda?'
tRp989
sg45
F155525.4840383851
sg46
g30
(g32
S'\x12\x18NM\x1c\xf2\xca?'
tRp990
sg48
F254506.9341054204
sg49
g30
(g32
S'\x00\x00\x00\x00\x00\x00\x00\x00'
tRp991
sg51
g30
(g32
S'\x00\x00\x00\x00\x00\x00\x00\x00'
tRp992
sg53
g30
(g32
S'\x0fg\x9d\x17\x8d\xf5\xb4?'
tRp993
stRp994
ss(I4
I30
I300
tp995
(dp996
g4
(g5
((dtRp997
g5
((dp998
g8
F0
sg9
F0
sg10
F0
sg11
I0
sg12
I0
sg13
I0
sg14
I0
stRp999
tp1000
sg17
(g5
((dtRp1001
g5
((dp1002
g8
F0
sg9
F0
sg10
F0
sg11
I0
sg12
I0
sg13
I0
sg14
I0
stRp1003
tp1004
sg22
(g5
((dtRp1005
g5
((dp1006
g8
F0
sg9
F0
sg10
F0
sg11
I0
sg12
I0
sg13
I0
sg14
I0
stRp1007
tp1008
sg27
g5
((dp1009
g29
g30
(g32
S'\xb0\nF%\x01\x7f\xeb@'
tRp1010
sg34
g30
(g32
S'gfff\xe2\xf5\x05A'
tRp1011
sg36
g30
(g32
S'\xe5"\xca\x12\xa4\xae\xb2?'
tRp1012
sg38
g30
(g32
S'\xac\x82QI$g\x0fA'
tRp1013
sg40
F14737.908087933803
sg41
g30
(g32
S'\x00\x00\x00\x00d\x87\x08A'
tRp1014
sg43
g30
(g32
S'T\xf0\x1a\n7-\xda?'
tRp1015
sg45
F13128.639752323408
sg46
g30
(g32
S'Z\xb1\x0f\xfa\xc2\xd3\xc3?'
tRp1016
sg48
F27866.547840257212
sg49
g30
(g32
S'\x00\x00\x00\x00\x00\x00\x00\x00'
tRp1017
sg51
g30
(g32
S'\x00\x00\x00\x00\x00\x00\x00\x00'
tRp1018
sg53
g30
(g32
S'\xce?U\xe1\xe1\xf8\xb4?'
tRp1019
stRp1020
ss(I10
I80
I300
tp1021
(dp1022
g4
(g5
((dtRp1023
g5
((dp1024
g8
F0
sg9
F0
sg10
F0
sg11
I0
sg12
I0
sg13
I0
sg14
I0
stRp1025
tp1026
sg17
(g5
((dtRp1027
g5
((dp1028
g8
F0
sg9
F0
sg10
F0
sg11
I0
sg12
I0
sg13
I0
sg14
I0
stRp1029
tp1030
sg22
(g5
((dtRp1031
g5
((dp1032
g8
F0
sg9
F0
sg10
F0
sg11
I0
sg12
I0
sg13
I0
sg14
I0
stRp1033
tp1034
sg27
g5
((dp1035
g29
g30
(g32
S'\x90\r\xbe\xb0KY\xf4@'
tRp1036
sg34
g30
(g32
S'\x01\x00\x00\x80A\x877A'
tRp1037
sg36
g30
(g32
S';\x15\xa8w\xdb\xcd\xbe?'
tRp1038
sg38
g30
(g32
S'\xa6\xad\xd8\x87\xd2A>A'
tRp1039
sg40
F132692.86385940225
sg41
g30
(g32
S'\xcd\xcc\xcc\xcc=\xfc<A'
tRp1040
sg43
g30
(g32
S'x\x97\xe0\xca\xfe\x80\xd8?'
tRp1041
sg45
F185541.15685812596
sg46
g30
(g32
S'\xf5\x12V\xb2\xc7j\xca?'
tRp1042
sg48
F318234.02071752824
sg49
g30
(g32
S'\x00\x00\x00\x00\x00\x00\x00\x00'
tRp1043
sg51
g30
(g32
S'\x00\x00\x00\x00\x00\x00\x00\x00'
tRp1044
sg53
g30
(g32
S'\xad\x10\x04\xed\xb3\x07\xb6?'
tRp1045
stRp1046
ss(I19
I150
I150
tp1047
(dp1048
g4
(g5
((dtRp1049
g5
((dp1050
g8
F0
sg9
F0
sg10
F0
sg11
I0
sg12
I0
sg13
I0
sg14
I0
stRp1051
tp1052
sg17
(g5
((dtRp1053
g5
((dp1054
g8
F0
sg9
F0
sg10
F0
sg11
I0
sg12
I0
sg13
I0
sg14
I0
stRp1055
tp1056
sg22
(g5
((dtRp1057
g5
((dp1058
g8
F0
sg9
F0
sg10
F0
sg11
I0
sg12
I0
sg13
I0
sg14
I0
stRp1059
tp1060
sg27
g5
((dp1061
g29
g30
(g32
S'\x80\xdc\x12\xf2\xdc\xcf\xfa@'
tRp1062
sg34
g30
(g32
S'\x00\x00\x00\x80\x9a\xc9dA'
tRp1063
sg36
g30
(g32
S'W\x1c4\x98\x90\xc2\xb3?'
tRp1064
sg38
g30
(g32
S'R\xbf}\xe3\\\x1dgA'
tRp1065
sg40
F1193967.2473166471
sg41
g30
(g32
S'\x99\x99\x99)\xbd\xe7fA'
tRp1066
sg43
g30
(g32
S'H\xa4jl\x0b1\xd1?'
tRp1067
sg45
F841239.88572263066
sg46
g30
(g32
S'\xb3\xe1\xa1O\x14\xe7\xc7?'
tRp1068
sg48
F2035207.1330392784
sg49
g30
(g32
S'\x00\x00\x00\x00\x00\x00\x00\x00'
tRp1069
sg51
g30
(g32
S'\x00\x00\x00\x00\x00\x00\x00\x00'
tRp1070
sg53
g30
(g32
S'\n\xa7\x0f\x07\x98\x0b\xbc?'
tRp1071
stRp1072
ss(I34
I150
I40
tp1073
(dp1074
g4
(g5
((dtRp1075
g5
((dp1076
g8
F0
sg9
F0
sg10
F0
sg11
I0
sg12
I0
sg13
I0
sg14
I0
stRp1077
tp1078
sg17
(g5
((dtRp1079
g5
((dp1080
g8
F0
sg9
F0
sg10
F0
sg11
I0
sg12
I0
sg13
I0
sg14
I0
stRp1081
tp1082
sg22
(g5
((dtRp1083
g5
((dp1084
g8
F0
sg9
F0
sg10
F0
sg11
I0
sg12
I0
sg13
I0
sg14
I0
stRp1085
tp1086
sg27
g5
((dp1087
g29
g30
(g32
S'\x00\x1fZd\xfd\x8b\x06A'
tRp1088
sg34
g30
(g32
S'\x9b\x99\x99\xf9`\x87qA'
tRp1089
sg36
g30
(g32
S'\x82.\x12:\xa5\xcb\xb6?'
tRp1090
sg38
g30
(g32
S'\xa4\x1a/yU\x85sA'
tRp1091
sg40
F1633810.1966701846
sg41
g30
(g32
S'fff~=XsA'
tRp1092
sg43
g30
(g32
S'\x15SP\xa2\xb1\xc1\xd0?'
tRp1093
sg45
F1636671.9737658973
sg46
g30
(g32
S'\x1c\xf3\x17#\x8b\xc6\xc6?'
tRp1094
sg48
F3270482.1704360824
sg49
g30
(g32
S'\x00\x00\x00\x00\x00\x00\x00\x00'
tRp1095
sg51
g30
(g32
S'\x00\x00\x00\x00\x00\x00\x00\x00'
tRp1096
sg53
g30
(g32
S'\xb4\xb7\x1d\x0cq\xc1\xb6?'
tRp1097
stRp1098
ss(I26
I150
I25
tp1099
(dp1100
g4
(g5
((dtRp1101
g5
((dp1102
g8
F0
sg9
F0
sg10
F0
sg11
I0
sg12
I0
sg13
I0
sg14
I0
stRp1103
tp1104
sg17
(g5
((dtRp1105
g5
((dp1106
g8
F0
sg9
F0
sg10
F0
sg11
I0
sg12
I0
sg13
I0
sg14
I0
stRp1107
tp1108
sg22
(g5
((dtRp1109
g5
((dp1110
g8
F0
sg9
F0
sg10
F0
sg11
I0
sg12
I0
sg13
I0
sg14
I0
stRp1111
tp1112
sg27
g5
((dp1113
g29
g30
(g32
S'\x00\xb0\x05\x928\xa2\tA'
tRp1114
sg34
g30
(g32
S'\x00\x00\x00\xd0\x11,rA'
tRp1115
sg36
g30
(g32
S'\r\x11-\xd1\x1d\xdd\xb6?'
tRp1116
sg38
g30
(g32
S'\xc6q\x8a\x7fO*tA'
tRp1117
sg40
F1797671.7721914165
sg41
g30
(g32
S'fff\x0e\x0b\xf7sA'
tRp1118
sg43
g30
(g32
S'\xd9\xfe\xa7M\xf5\xea\xd0?'
tRp1119
sg45
F1701819.0683003061
sg46
g30
(g32
S'\x80\xce\xecs\xf3\x81\xc7?'
tRp1120
sg48
F3499490.8404917223
sg49
g30
(g32
S'\x00\x00\x00\x00\x00\x00\x00\x00'
tRp1121
sg51
g30
(g32
S'\x00\x00\x00\x00\x00\x00\x00\x00'
tRp1122
sg53
g30
(g32
S'\xf3\x8b\xac\x16\xc9&\xb8?'
tRp1123
stRp1124
ss(I32
I150
I3333
tp1125
(dp1126
g4
(g5
((dtRp1127
g5
((dp1128
g8
F0
sg9
F0
sg10
F0
sg11
I0
sg12
I0
sg13
I0
sg14
I0
stRp1129
tp1130
sg17
(g5
((dtRp1131
g5
((dp1132
g8
F0
sg9
F0
sg10
F0
sg11
I0
sg12
I0
sg13
I0
sg14
I0
stRp1133
tp1134
sg22
(g5
((dtRp1135
g5
((dp1136
g8
F0
sg9
F0
sg10
F0
sg11
I0
sg12
I0
sg13
I0
sg14
I0
stRp1137
tp1138
sg27
g5
((dp1139
g29
g30
(g32
S'\x10\xe4\xa0\x84\xee5\xfb@'
tRp1140
sg34
g30
(g32
S'\x00\x00\x00\x00\xc4"\'A'
tRp1141
sg36
g30
(g32
S'\xcf\x9e`\xd0\xe8\xf6\x9e?'
tRp1142
sg38
g30
(g32
S'\x82\x1c\x94\xd0\xb0M/A'
tRp1143
sg40
F34213.160848764179
sg41
g30
(g32
S'\x00\x00\x00\x00\xf3\xe6+A'
tRp1144
sg43
g30
(g32
S'J\x91\x85\xce\x89C\xd4?'
tRp1145
sg45
F22924.427090843314
sg46
g30
(g32
S'\xf3$\xb1]RK\xb3?'
tRp1146
sg48
F57137.587939607489
sg49
g30
(g32
S'\x00\x00\x00\x00\x00\x00\x00\x00'
tRp1147
sg51
g30
(g32
S'\x00\x00\x00\x00\x00\x00\x00\x00'
tRp1148
sg53
g30
(g32
S'\x80\xfa1S0\x1b\xa7?'
tRp1149
stRp1150
ss(I30
I150
I300
tp1151
(dp1152
g4
(g5
((dtRp1153
g5
((dp1154
g8
F0
sg9
F0
sg10
F0
sg11
I0
sg12
I0
sg13
I0
sg14
I0
stRp1155
tp1156
sg17
(g5
((dtRp1157
g5
((dp1158
g8
F0
sg9
F0
sg10
F0
sg11
I0
sg12
I0
sg13
I0
sg14
I0
stRp1159
tp1160
sg22
(g5
((dtRp1161
g5
((dp1162
g8
F0
sg9
F0
sg10
F0
sg11
I0
sg12
I0
sg13
I0
sg14
I0
stRp1163
tp1164
sg27
g5
((dp1165
g29
g30
(g32
S'\xc0\x1e8\xe7\xd0\x89\x01A'
tRp1166
sg34
g30
(g32
S'\x00\x00\x00\xe0G\xd8eA'
tRp1167
sg36
g30
(g32
S'\xff\xb8\xa9\x99\xd0\xfb\xb3?'
tRp1168
sg38
g30
(g32
S'\xae\x13\xd0\x16\x8f\xaeiA'
tRp1169
sg40
F1236843.3680073277
sg41
g30
(g32
S'333\xd3ghiA'
tRp1170
sg43
g30
(g32
S'Fbt*\xbe\xb0\xd3?'
tRp1171
sg45
F894033.52926851343
sg46
g30
(g32
S'1\xf1;\x9e\x9f\xd0\xc7?'
tRp1172
sg48
F2130876.8972758413
sg49
g30
(g32
S'\x00\x00\x00\x00\x00\x00\x00\x00'
tRp1173
sg51
g30
(g32
S'\x00\x00\x00\x00\x00\x00\x00\x00'
tRp1174
sg53
g30
(g32
S'b)\xce\xa2n\xa5\xbb?'
tRp1175
stRp1176
ss(I29
I150
I30
tp1177
(dp1178
g4
(g5
((dtRp1179
g5
((dp1180
g8
F0
sg9
F0
sg10
F0
sg11
I0
sg12
I0
sg13
I0
sg14
I0
stRp1181
tp1182
sg17
(g5
((dtRp1183
g5
((dp1184
g8
F0
sg9
F0
sg10
F0
sg11
I0
sg12
I0
sg13
I0
sg14
I0
stRp1185
tp1186
sg22
(g5
((dtRp1187
g5
((dp1188
g8
F0
sg9
F0
sg10
F0
sg11
I0
sg12
I0
sg13
I0
sg14
I0
stRp1189
tp1190
sg27
g5
((dp1191
g29
g30
(g32
S'\x80H\xe4\t\x84\xb1\x07A'
tRp1192
sg34
g30
(g32
S'\xcc\xcc\xcc<\xff\xa5pA'
tRp1193
sg36
g30
(g32
S'\x05:^\xeb\xe3\x04\xb6?'
tRp1194
sg38
g30
(g32
S'\xc4\xfbF;J\x92rA'
tRp1195
sg40
F1590791.9615359078
sg41
g30
(g32
S'3333\xe7brA'
tRp1196
sg43
g30
(g32
S'\xba\xb5`\x0e9\xca\xd0?'
tRp1197
sg45
F1501525.6070268035
sg46
g30
(g32
S'\xb3\x088\xb7r\xac\xc6?'
tRp1198
sg48
F3092317.5685627121
sg49
g30
(g32
S'\x00\x00\x00\x00\x00\x00\x00\x00'
tRp1199
sg51
g30
(g32
S'\x00\x00\x00\x00\x00\x00\x00\x00'
tRp1200
sg53
g30
(g32
S']\xd7\x11\x83\x01T\xb7?'
tRp1201
stRp1202
ss(I41
I150
I500
tp1203
(dp1204
g4
(g5
((dtRp1205
g5
((dp1206
g8
F0
sg9
F0
sg10
F0
sg11
I0
sg12
I0
sg13
I0
sg14
I0
stRp1207
tp1208
sg17
(g5
((dtRp1209
g5
((dp1210
g8
F0
sg9
F0
sg10
F0
sg11
I0
sg12
I0
sg13
I0
sg14
I0
stRp1211
tp1212
sg22
(g5
((dtRp1213
g5
((dp1214
g8
F0
sg9
F0
sg10
F0
sg11
I0
sg12
I0
sg13
I0
sg14
I0
stRp1215
tp1216
sg27
g5
((dp1217
g29
g30
(g32
S'\x80\xb4\x93\xc1T\x0b\x06A'
tRp1218
sg34
g30
(g32
S'fff\xb6\xacKgA'
tRp1219
sg36
g30
(g32
S'\x11\xaaylAr\xb5?'
tRp1220
sg38
g30
(g32
S'\xd2N\x06\xa3unnA'
tRp1221
sg40
F1258446.1636535914
sg41
g30
(g32
S'\x00\x00\x00PH\x16nA'
tRp1222
sg43
g30
(g32
S'\xd3\x81\x07\xe6\xe3(\xd8?'
tRp1223
sg45
F1023190.5612151237
sg46
g30
(g32
S'\x16\x10\xc8\xd1l\xe9\xc7?'
tRp1224
sg48
F2281636.7248687153
sg49
g30
(g32
S'\x00\x00\x00\x00\x00\x00\x00\x00'
tRp1225
sg51
g30
(g32
S'\x00\x00\x00\x00\x00\x00\x00\x00'
tRp1226
sg53
g30
(g32
S'\x1av\x167\x98`\xba?'
tRp1227
stRp1228
ss(I46
I150
I600
tp1229
(dp1230
g4
(g5
((dtRp1231
g5
((dp1232
g8
F0
sg9
F0
sg10
F0
sg11
I0
sg12
I0
sg13
I0
sg14
I0
stRp1233
tp1234
sg17
(g5
((dtRp1235
g5
((dp1236
g8
F0
sg9
F0
sg10
F0
sg11
I0
sg12
I0
sg13
I0
sg14
I0
stRp1237
tp1238
sg22
(g5
((dtRp1239
g5
((dp1240
g8
F0
sg9
F0
sg10
F0
sg11
I0
sg12
I0
sg13
I0
sg14
I0
stRp1241
tp1242
sg27
g5
((dp1243
g29
g30
(g32
S'\x00\xbe\x90\xd5"\xe0\x08A'
tRp1244
sg34
g30
(g32
S'433cj"jA'
tRp1245
sg36
g30
(g32
S'\xdc\xc5v6]l\xb7?'
tRp1246
sg38
g30
(g32
S'\x16\xbbD\xefNmqA'
tRp1247
sg40
F1354887.9071831959
sg41
g30
(g32
S'\x9a\x99\x99\xa9\x8e;qA'
tRp1248
sg43
g30
(g32
S'V\xf4\xf9J\xb0%\xd9?'
tRp1249
sg45
F1253692.7455424028
sg46
g30
(g32
S'd8\n\xd2^^\xc8?'
tRp1250
sg48
F2608580.6527255988
sg49
g30
(g32
S'\x00\x00\x00\x00\x00\x00\x00\x00'
tRp1251
sg51
g30
(g32
S'\x00\x00\x00\x00\x00\x00\x00\x00'
tRp1252
sg53
g30
(g32
S'\xec\xaa\x9dm`P\xb9?'
tRp1253
stRp1254
ss(I28
I150
I2750
tp1255
(dp1256
g4
(g5
((dtRp1257
g5
((dp1258
g8
F0
sg9
F0
sg10
F0
sg11
I0
sg12
I0
sg13
I0
sg14
I0
stRp1259
tp1260
sg17
(g5
((dtRp1261
g5
((dp1262
g8
F0
sg9
F0
sg10
F0
sg11
I0
sg12
I0
sg13
I0
sg14
I0
stRp1263
tp1264
sg22
(g5
((dtRp1265
g5
((dp1266
g8
F0
sg9
F0
sg10
F0
sg11
I0
sg12
I0
sg13
I0
sg14
I0
stRp1267
tp1268
sg27
g5
((dp1269
g29
g30
(g32
S' \x94o\xb6\xa8^\xff@'
tRp1270
sg34
g30
(g32
S'ffff\x16\xe7*A'
tRp1271
sg36
g30
(g32
S'\xf0\xbc}\xb5\x11p\xa4?'
tRp1272
sg38
g30
(g32
S'\x0e\xc63\xd8\xe8\x8e2A'
tRp1273
sg40
F51772.08586950013
sg41
g30
(g32
S'\xcc\xcc\xccL\xfe\x980A'
tRp1274
sg43
g30
(g32
S'p\x14\x0e\xb6\x0c0\xd6?'
tRp1275
sg45
F35189.177947567827
sg46
g30
(g32
S'\xe1\xc44E\xe0@\xb9?'
tRp1276
sg48
F86961.263817067942
sg49
g30
(g32
S'\x00\x00\x00\x00\x00\x00\x00\x00'
tRp1277
sg51
g30
(g32
S'\x00\x00\x00\x00\x00\x00\x00\x00'
tRp1278
sg53
g30
(g32
S'\xd4\xcc\xeb\xd4\xae\x11\xae?'
tRp1279
stRp1280
ss(I45
I150
I5750
tp1281
(dp1282
g4
(g5
((dtRp1283
g5
((dp1284
g8
F0
sg9
F0
sg10
F0
sg11
I0
sg12
I0
sg13
I0
sg14
I0
stRp1285
tp1286
sg17
(g5
((dtRp1287
g5
((dp1288
g8
F0
sg9
F0
sg10
F0
sg11
I0
sg12
I0
sg13
I0
sg14
I0
stRp1289
tp1290
sg22
(g5
((dtRp1291
g5
((dp1292
g8
F0
sg9
F0
sg10
F0
sg11
I0
sg12
I0
sg13
I0
sg14
I0
stRp1293
tp1294
sg27
g5
((dp1295
g29
g30
(g32
S'\xbc\xa1E\xb6\x7f1\xe0@'
tRp1296
sg34
g30
(g32
S'\xff\xff\xff\xff/\xb8\xfc@'
tRp1297
sg36
g30
(g32
S'\x0fG\xf2-\x1e\x0e\xa7?'
tRp1298
sg38
g30
(g32
S'\xd6\xce\xf7S\x02|\x05A'
tRp1299
sg40
F11800.987223847862
sg41
g30
(g32
S'gfff\xa2o\x01A'
tRp1300
sg43
g30
(g32
S'\x83\xcaEO\xf0p\xdb?'
tRp1301
sg45
F5297.0553422840749
sg46
g30
(g32
S'\xcaS\xa2\x93\xc5\x9a\xc2?'
tRp1302
sg48
F17098.042566131935
sg49
g30
(g32
S'\x00\x00\x00\x00\x00\x00\x00\x00'
tRp1303
sg51
g30
(g32
S'\x00\x00\x00\x00\x00\x00\x00\x00'
tRp1304
sg53
g30
(g32
S'\r\x84K\x10|\xae\xb9?'
tRp1305
stRp1306
ss(I7
I45
I300
tp1307
(dp1308
g4
(g5
((dtRp1309
g5
((dp1310
g8
F0
sg9
F0
sg10
F0
sg11
I0
sg12
I0
sg13
I0
sg14
I0
stRp1311
tp1312
sg17
(g5
((dtRp1313
g5
((dp1314
g8
F0
sg9
F0
sg10
F0
sg11
I0
sg12
I0
sg13
I0
sg14
I0
stRp1315
tp1316
sg22
(g5
((dtRp1317
g5
((dp1318
g8
F0
sg9
F0
sg10
F0
sg11
I0
sg12
I0
sg13
I0
sg14
I0
stRp1319
tp1320
sg27
g5
((dp1321
g29
g30
(g32
S'\xf8w\x9c"\x86u\xf6@'
tRp1322
sg34
g30
(g32
S'\x9b\x99\x99\x99l\xe9(A'
tRp1323
sg36
g30
(g32
S'\xdf\t\x91$\x06M\xb7?'
tRp1324
sg38
g30
(g32
S'\xff\x8eS\xc4r\xd8/A'
tRp1325
sg40
F66972.745181719583
sg41
g30
(g32
S'\x00\x00\x00\x00\xc2\t-A'
tRp1326
sg43
g30
(g32
S'\x8a\xde\xde\x18]\x99\xd6?'
tRp1327
sg45
F74299.782215000567
sg46
g30
(g32
S'\x9d\x8e[\xaf\xe7&\xc6?'
tRp1328
sg48
F141272.52739672016
sg49
g30
(g32
S'\x00\x00\x00\x00\x00\x00\x00\x00'
tRp1329
sg51
g30
(g32
S'\x00\x00\x00\x00\x00\x00\x00\x00'
tRp1330
sg53
g30
(g32
S'[\x13&:\xc9\x00\xb5?'
tRp1331
stRp1332
ss(I27
I150
I2500
tp1333
(dp1334
g4
(g5
((dtRp1335
g5
((dp1336
g8
F0
sg9
F0
sg10
F0
sg11
I0
sg12
I0
sg13
I0
sg14
I0
stRp1337
tp1338
sg17
(g5
((dtRp1339
g5
((dp1340
g8
F0
sg9
F0
sg10
F0
sg11
I0
sg12
I0
sg13
I0
sg14
I0
stRp1341
tp1342
sg22
(g5
((dtRp1343
g5
((dp1344
g8
F0
sg9
F0
sg10
F0
sg11
I0
sg12
I0
sg13
I0
sg14
I0
stRp1345
tp1346
sg27
g5
((dp1347
g29
g30
(g32
S'\x903\x16\xcd\xfd\x14\xfd@'
tRp1348
sg34
g30
(g32
S'\x00\x00\x00\x00\xc4\xbd$A'
tRp1349
sg36
g30
(g32
S'gW\xbd\xfb\xa0\xde\xa3?'
tRp1350
sg38
g30
(g32
S'\xd8,\t \x8f\xb4-A'
tRp1351
sg40
F31479.260674875553
sg41
g30
(g32
S'ffff\xef\x11*A'
tRp1352
sg43
g30
(g32
S'\x0e=\xd6=\xf1\x1d\xd7?'
tRp1353
sg45
F26375.788055037759
sg46
g30
(g32
S'\xa2~\xa4\x9f\xbc\xca\xb5?'
tRp1354
sg48
F57855.048729913316
sg49
g30
(g32
S'\x00\x00\x00\x00\x00\x00\x00\x00'
tRp1355
sg51
g30
(g32
S'\x00\x00\x00\x00\x00\x00\x00\x00'
tRp1356
sg53
g30
(g32
S'\xdc\xa5\x8bC\xd8\xb6\xa7?'
tRp1357
stRp1358
ss(I15
I150
I100
tp1359
(dp1360
g4
(g5
((dtRp1361
g5
((dp1362
g8
F0
sg9
F0
sg10
F0
sg11
I0
sg12
I0
sg13
I0
sg14
I0
stRp1363
tp1364
sg17
(g5
((dtRp1365
g5
((dp1366
g8
F0
sg9
F0
sg10
F0
sg11
I0
sg12
I0
sg13
I0
sg14
I0
stRp1367
tp1368
sg22
(g5
((dtRp1369
g5
((dp1370
g8
F0
sg9
F0
sg10
F0
sg11
I0
sg12
I0
sg13
I0
sg14
I0
stRp1371
tp1372
sg27
g5
((dp1373
g29
g30
(g32
S'\x00Z\x9c\x7f\xe2\x97\x04A'
tRp1374
sg34
g30
(g32
S'\xcd\xcc\xcc4b\xdbpA'
tRp1375
sg36
g30
(g32
S'c\xbc\xf7X\xd8d\xb5?'
tRp1376
sg38
g30
(g32
S'\xe7k2\xa0s\xfbrA'
tRp1377
sg40
F1513362.1071780634
sg41
g30
(g32
S'333\xdbC\xd2rA'
tRp1378
sg43
g30
(g32
S'\x8d,p%\xfc\xc7\xd0?'
tRp1379
sg45
F1477167.9785186616
sg46
g30
(g32
S'\x8a"\xadf\xf1\xa7\xc5?'
tRp1380
sg48
F2990530.0856967256
sg49
g30
(g32
S'\x00\x00\x00\x00\x00\x00\x00\x00'
tRp1381
sg51
g30
(g32
S'\x00\x00\x00\x00\x00\x00\x00\x00'
tRp1382
sg53
g30
(g32
S'\xae\x88bt\n\xeb\xb5?'
tRp1383
stRp1384
ss.