(dp1
S'A'
ccollections
Counter
p2
((dp3
S'H'
I5
sS'C'
I3
sS'O'
I1
sS'N'
I1
stRp4
sS'C'
g2
((dp5
S'H'
I5
sS'C'
I3
sS'S'
I1
sS'O'
I1
sS'N'
I1
stRp6
sS'E'
g2
((dp7
S'H'
I7
sS'C'
I5
sS'O'
I3
sS'N'
I1
stRp8
sS'D'
g2
((dp9
S'H'
I5
sS'C'
I4
sS'O'
I3
sS'N'
I1
stRp10
sS'G'
g2
((dp11
S'H'
I3
sS'C'
I2
sS'O'
I1
sS'N'
I1
stRp12
sS'F'
g2
((dp13
S'H'
I9
sS'C'
I9
sS'O'
I1
sS'N'
I1
stRp14
sS'I'
g2
((dp15
S'H'
I11
sS'C'
I6
sS'O'
I1
sS'N'
I1
stRp16
sS'H'
g2
((dp17
S'H'
I7
sS'C'
I6
sS'O'
I1
sS'N'
I3
stRp18
sS'K'
g2
((dp19
S'H'
I12
sS'C'
I6
sS'O'
I1
sS'N'
I2
stRp20
sS'M'
g2
((dp21
S'H'
I9
sS'C'
I5
sS'S'
I1
sS'O'
I1
sS'N'
I1
stRp22
sS'L'
g2
((dp23
S'H'
I11
sS'C'
I6
sS'O'
I1
sS'N'
I1
stRp24
sS'O'
g2
((dp25
S'H'
I19
sS'C'
I12
sS'O'
I2
sS'N'
I3
stRp26
sS'N'
g2
((dp27
S'H'
I6
sS'C'
I4
sS'O'
I2
sS'N'
I2
stRp28
sS'Q'
g2
((dp29
S'H'
I8
sS'C'
I5
sS'O'
I2
sS'N'
I2
stRp30
sS'P'
g2
((dp31
S'H'
I7
sS'C'
I5
sS'O'
I1
sS'N'
I1
stRp32
sS'S'
g2
((dp33
S'H'
I5
sS'C'
I3
sS'O'
I2
sS'N'
I1
stRp34
sS'R'
g2
((dp35
S'H'
I12
sS'C'
I6
sS'O'
I1
sS'N'
I4
stRp36
sS'U'
g2
((dp37
S'H'
I5
sS'C'
I3
sS'O'
I1
sS'Se'
p38
I1
sS'N'
I1
stRp39
sS'T'
g2
((dp40
S'H'
I7
sS'C'
I4
sS'O'
I2
sS'N'
I1
stRp41
sS'W'
g2
((dp42
S'H'
I10
sS'C'
I11
sS'O'
I1
sS'N'
I2
stRp43
sS'V'
g2
((dp44
S'H'
I9
sS'C'
I5
sS'O'
I1
sS'N'
I1
stRp45
sS'Y'
g2
((dp46
S'H'
I9
sS'C'
I9
sS'O'
I2
sS'N'
I1
stRp47
s.