(dp1
S'A'
(dp2
S'graph'
p3
cigraph
Graph
p4
(I10
(lp5
(I0
I3
tp6
a(I1
I3
tp7
a(I2
I3
tp8
a(I6
I9
tp9
a(I6
I7
tp10
a(I4
I9
tp11
a(I5
I6
tp12
a(I7
I8
tp13
a(I7
I8
tp14
a(I3
I6
tp15
aI00
(dp16
S'name'
p17
S'Alanine'
p18
s(dp19
S'elem'
p20
(lp21
S'H'
aS'H'
aS'H'
aS'C'
aS'H'
aS'H'
aS'C'
aS'C'
aS'O'
aS'N'
asg17
(lp22
S'Hbeta1'
p23
aS'Hbeta2'
p24
aS'Hbeta3'
p25
aS'Cbeta'
p26
aS'HNalpha'
p27
aS'Halpha'
p28
aS'Calpha'
p29
aS'Ccarbo'
p30
aS'Ocarbo'
p31
aS'Nalpha'
p32
as(dp33
S'Roep'
p34
(lp35
NaNaNaS'cz'
p36
aS'ax'
p37
aNaNaNaNaNastRp38
(dp39
bsS'CcarboIDX'
p40
I7
sS'NalphaIDX'
p41
I9
ssS'C'
(dp42
g3
g4
(I11
(lp43
(I0
I3
tp44
a(I1
I3
tp45
a(I3
I4
tp46
a(I2
I4
tp47
a(I7
I10
tp48
a(I7
I8
tp49
a(I5
I10
tp50
a(I6
I7
tp51
a(I8
I9
tp52
a(I8
I9
tp53
a(I3
I7
tp54
aI00
(dp55
g17
S'Cysteine'
p56
s(dp57
g20
(lp58
S'H'
aS'H'
aS'H'
aS'C'
aS'S'
aS'H'
aS'H'
aS'C'
aS'C'
aS'O'
aS'N'
asg17
(lp59
g23
ag24
aS'HSbeta'
p60
ag26
aS'Sbeta'
p61
ag27
ag28
ag29
ag30
ag31
ag32
as(dp62
g34
(lp63
NaNaNaNag36
ag37
aNaNaNaNaNastRp64
(dp65
bsg40
I8
sg41
I10
ssS'E'
(dp66
g3
g4
(I16
(lp67
(I0
I5
tp68
a(I1
I5
tp69
a(I5
I6
tp70
a(I2
I6
tp71
a(I3
I6
tp72
a(I6
I7
tp73
a(I7
I8
tp74
a(I7
I8
tp75
a(I7
I9
tp76
a(I4
I9
tp77
a(I12
I15
tp78
a(I12
I13
tp79
a(I10
I15
tp80
a(I11
I12
tp81
a(I13
I14
tp82
a(I13
I14
tp83
a(I5
I12
tp84
aI00
(dp85
g17
S'Glutamic acid'
p86
s(dp87
g20
(lp88
S'H'
aS'H'
aS'H'
aS'H'
aS'H'
aS'C'
aS'C'
aS'C'
aS'O'
aS'O'
aS'H'
aS'H'
aS'C'
aS'C'
aS'O'
aS'N'
asg17
(lp89
g23
ag24
aS'Hgamma1'
p90
aS'Hgamma2'
p91
aS'HOdelta'
p92
ag26
aS'Cgamma'
p93
aS'Cdelta'
p94
aS'Odelta1'
p95
aS'Odelta2'
p96
ag27
ag28
ag29
ag30
ag31
ag32
as(dp97
g34
(lp98
NaNaNaNaNaNaNaNaNaNag36
ag37
aNaNaNaNaNastRp99
(dp100
bsg40
I13
sg41
I15
ssS'D'
(dp101
g3
g4
(I13
(lp102
(I0
I3
tp103
a(I1
I3
tp104
a(I3
I4
tp105
a(I4
I5
tp106
a(I4
I5
tp107
a(I4
I6
tp108
a(I2
I6
tp109
a(I9
I12
tp110
a(I9
I10
tp111
a(I7
I12
tp112
a(I8
I9
tp113
a(I10
I11
tp114
a(I10
I11
tp115
a(I3
I9
tp116
aI00
(dp117
g17
S'Aspartic acid'
p118
s(dp119
g20
(lp120
S'H'
aS'H'
aS'H'
aS'C'
aS'C'
aS'O'
aS'O'
aS'H'
aS'H'
aS'C'
aS'C'
aS'O'
aS'N'
asg17
(lp121
g23
ag24
aS'HOgamma2'
p122
ag26
ag93
aS'Ogamma1'
p123
aS'Ogamma2'
p124
ag27
ag28
ag29
ag30
ag31
ag32
as(dp125
g34
(lp126
NaNaNaNaNaNaNag36
ag37
aNaNaNaNaNastRp127
(dp128
bsg40
I10
sg41
I12
ssS'G'
(dp129
g3
g4
(I7
(lp130
(I2
I5
tp131
a(I2
I3
tp132
a(I0
I5
tp133
a(I1
I2
tp134
a(I3
I4
tp135
a(I3
I4
tp136
a(I2
I6
tp137
aI00
(dp138
g17
S'Glycine'
p139
s(dp140
g17
(lp141
g27
aS'Halpha1'
p142
ag29
ag30
ag31
ag32
aS'Halpha2'
p143
asg20
(lp144
S'H'
aS'H'
aS'C'
aS'C'
aS'O'
aS'N'
aS'H'
as(dp145
g34
(lp146
g36
ag37
aNaNaNaNaNastRp147
(dp148
bsg40
I3
sg41
I5
ssS'F'
(dp149
g3
g4
(I20
(lp150
(I0
I7
tp151
a(I1
I7
tp152
a(I7
I8
tp153
a(I8
I9
tp154
a(I8
I9
tp155
a(I8
I13
tp156
a(I2
I9
tp157
a(I9
I10
tp158
a(I3
I10
tp159
a(I10
I11
tp160
a(I10
I11
tp161
a(I4
I11
tp162
a(I11
I12
tp163
a(I5
I12
tp164
a(I12
I13
tp165
a(I12
I13
tp166
a(I6
I13
tp167
a(I16
I19
tp168
a(I16
I17
tp169
a(I14
I19
tp170
a(I15
I16
tp171
a(I17
I18
tp172
a(I17
I18
tp173
a(I7
I16
tp174
aI00
(dp175
g17
S'Phenylalanine'
p176
s(dp177
g20
(lp178
S'H'
aS'H'
aS'H'
aS'H'
aS'H'
aS'H'
aS'H'
aS'C'
aS'C'
aS'C'
aS'C'
aS'C'
aS'C'
aS'C'
aS'H'
aS'H'
aS'C'
aS'C'
aS'O'
aS'N'
asg17
(lp179
g23
ag24
aS'H6'
p180
aS'H5'
p181
aS'H4'
p182
aS'H3'
p183
aS'H2'
p184
ag26
aS'C1'
p185
aS'C6'
p186
aS'C5'
p187
aS'C4'
p188
aS'C3'
p189
aS'C2'
p190
ag27
ag28
ag29
ag30
ag31
ag32
as(dp191
g34
(lp192
NaNaNaNaNaNaNaNaNaNaNaNaNaNaNaNaNag36
ag37
aNaNaNaNaNastRp193
(dp194
bsg40
I17
sg41
I19
ssS'I'
(dp195
g3
g4
(I19
(lp196
(I0
I9
tp197
a(I9
I10
tp198
a(I9
I11
tp199
a(I1
I10
tp200
a(I2
I10
tp201
a(I3
I10
tp202
a(I4
I11
tp203
a(I5
I11
tp204
a(I11
I12
tp205
a(I6
I12
tp206
a(I7
I12
tp207
a(I8
I12
tp208
a(I15
I18
tp209
a(I15
I16
tp210
a(I13
I18
tp211
a(I14
I15
tp212
a(I16
I17
tp213
a(I16
I17
tp214
a(I9
I15
tp215
aI00
(dp216
g17
S'Isoleucine'
p217
s(dp218
g20
(lp219
S'H'
aS'H'
aS'H'
aS'H'
aS'H'
aS'H'
aS'H'
aS'H'
aS'H'
aS'C'
aS'C'
aS'C'
aS'C'
aS'H'
aS'H'
aS'C'
aS'C'
aS'O'
aS'N'
asg17
(lp220
S'Hbeta'
p221
aS'Hbeta1_1'
p222
aS'Hbeta1_2'
p223
aS'Hbeta1_3'
p224
ag90
ag91
aS'Hdelta1'
p225
aS'Hdelta2'
p226
aS'Hdelta3'
p227
ag26
aS'Cbeta1'
p228
ag93
ag94
ag27
ag28
ag29
ag30
ag31
ag32
as(dp229
g34
(lp230
NaNaNaNaNaNaNaNaNaNaNaNag36
ag37
aNaNaNaNaNastRp231
(dp232
bsg40
I16
sg41
I18
ssS'H'
(dp233
g3
g4
(I17
(lp234
(I0
I5
tp235
a(I1
I5
tp236
a(I5
I6
tp237
a(I6
I7
tp238
a(I6
I7
tp239
a(I6
I9
tp240
a(I8
I9
tp241
a(I8
I9
tp242
a(I3
I8
tp243
a(I8
I10
tp244
a(I2
I10
tp245
a(I7
I10
tp246
a(I4
I7
tp247
a(I13
I16
tp248
a(I13
I14
tp249
a(I11
I16
tp250
a(I12
I13
tp251
a(I14
I15
tp252
a(I14
I15
tp253
a(I5
I13
tp254
aI00
(dp255
g17
S'Histidine'
p256
s(dp257
g20
(lp258
S'H'
aS'H'
aS'H'
aS'H'
aS'H'
aS'C'
aS'C'
aS'C'
aS'C'
aS'N'
aS'N'
aS'H'
aS'H'
aS'C'
aS'C'
aS'O'
aS'N'
asg17
(lp259
g23
ag24
aS'Hpi'
p260
aS'Htau'
p261
ag182
ag26
ag188
ag187
ag190
aS'Npi'
p262
aS'Ntau'
p263
ag27
ag28
ag29
ag30
ag31
ag32
as(dp264
g34
(lp265
NaNaNaNaNaNaNaNaNaNaNaNaNag36
ag37
aNaNaNaNaNastRp266
(dp267
bsg40
I14
sg41
I16
ssS'K'
(dp268
g3
g4
(I21
(lp269
(I0
I10
tp270
a(I1
I10
tp271
a(I10
I11
tp272
a(I2
I11
tp273
a(I3
I11
tp274
a(I11
I12
tp275
a(I4
I12
tp276
a(I5
I12
tp277
a(I12
I13
tp278
a(I6
I13
tp279
a(I7
I13
tp280
a(I13
I14
tp281
a(I8
I14
tp282
a(I9
I14
tp283
a(I17
I20
tp284
a(I17
I18
tp285
a(I15
I20
tp286
a(I16
I17
tp287
a(I18
I19
tp288
a(I18
I19
tp289
a(I10
I17
tp290
aI00
(dp291
g17
S'Lysine'
p292
s(dp293
g20
(lp294
S'H'
aS'H'
aS'H'
aS'H'
aS'H'
aS'H'
aS'H'
aS'H'
aS'H'
aS'H'
aS'C'
aS'C'
aS'C'
aS'C'
aS'N'
aS'H'
aS'H'
aS'C'
aS'C'
aS'O'
aS'N'
asg17
(lp295
g23
ag24
ag90
ag91
ag225
ag226
aS'Hepsilon1'
p296
aS'Hepsilon2'
p297
aS'HNepsilon1'
p298
aS'HNepsilon2'
p299
ag26
ag93
ag94
aS'Cepsilon'
p300
aS'Nepsilon'
p301
ag27
ag28
ag29
ag30
ag31
ag32
as(dp302
g34
(lp303
NaNaNaNaNaNaNaNaNaNaNaNaNaNag36
ag37
aNaNaNaNaNastRp304
(dp305
bsg40
I18
sg41
I20
ssS'M'
(dp306
g3
g4
(I17
(lp307
(I0
I7
tp308
a(I1
I7
tp309
a(I7
I8
tp310
a(I2
I8
tp311
a(I3
I8
tp312
a(I8
I10
tp313
a(I9
I10
tp314
a(I4
I9
tp315
a(I5
I9
tp316
a(I6
I9
tp317
a(I13
I16
tp318
a(I13
I14
tp319
a(I11
I16
tp320
a(I12
I13
tp321
a(I14
I15
tp322
a(I14
I15
tp323
a(I7
I13
tp324
aI00
(dp325
g17
S'Methionine'
p326
s(dp327
g20
(lp328
S'H'
aS'H'
aS'H'
aS'H'
aS'H'
aS'H'
aS'H'
aS'C'
aS'C'
aS'C'
aS'S'
aS'H'
aS'H'
aS'C'
aS'C'
aS'O'
aS'N'
asg17
(lp329
g23
ag24
ag90
ag91
ag296
ag297
aS'Hepsilon3'
p330
ag26
ag93
ag300
aS'Sdelta'
p331
ag27
ag28
ag29
ag30
ag31
ag32
as(dp332
g34
(lp333
NaNaNaNaNaNaNaNaNaNag36
ag37
aNaNaNaNaNastRp334
(dp335
bsg40
I14
sg41
I16
ssS'L'
(dp336
g3
g4
(I19
(lp337
(I0
I9
tp338
a(I1
I9
tp339
a(I9
I10
tp340
a(I2
I10
tp341
a(I10
I11
tp342
a(I10
I12
tp343
a(I3
I11
tp344
a(I4
I11
tp345
a(I5
I11
tp346
a(I6
I12
tp347
a(I7
I12
tp348
a(I8
I12
tp349
a(I15
I18
tp350
a(I15
I16
tp351
a(I13
I18
tp352
a(I14
I15
tp353
a(I16
I17
tp354
a(I16
I17
tp355
a(I9
I15
tp356
aI00
(dp357
g17
S'Leucine'
p358
s(dp359
g20
(lp360
S'H'
aS'H'
aS'H'
aS'H'
aS'H'
aS'H'
aS'H'
aS'H'
aS'H'
aS'C'
aS'C'
aS'C'
aS'C'
aS'H'
aS'H'
aS'C'
aS'C'
aS'O'
aS'N'
asg17
(lp361
g23
ag24
aS'Hgamma'
p362
aS'Hgamma1_1'
p363
aS'Hgamma1_2'
p364
aS'Hgamma1_3'
p365
aS'Hgamma2_1'
p366
aS'Hgamma2_2'
p367
aS'Hgamma2_3'
p368
ag26
ag93
aS'Cgamma1'
p369
aS'Cgamma2'
p370
ag27
ag28
ag29
ag30
ag31
ag32
as(dp371
g34
(lp372
NaNaNaNaNaNaNaNaNaNaNaNag36
ag37
aNaNaNaNaNastRp373
(dp374
bsg40
I16
sg41
I18
ssS'N'
(dp375
g3
g4
(I14
(lp376
(I0
I4
tp377
a(I1
I4
tp378
a(I4
I5
tp379
a(I5
I6
tp380
a(I5
I6
tp381
a(I5
I7
tp382
a(I2
I7
tp383
a(I3
I7
tp384
a(I10
I13
tp385
a(I10
I11
tp386
a(I8
I13
tp387
a(I9
I10
tp388
a(I11
I12
tp389
a(I11
I12
tp390
a(I4
I10
tp391
aI00
(dp392
g17
S'Asparagine'
p393
s(dp394
g20
(lp395
S'H'
aS'H'
aS'H'
aS'H'
aS'C'
aS'C'
aS'O'
aS'N'
aS'H'
aS'H'
aS'C'
aS'C'
aS'O'
aS'N'
asg17
(lp396
g23
ag24
aS'HNgamma1'
p397
aS'HNgamma2'
p398
ag26
ag93
aS'Ogamma'
p399
aS'Ngamma'
p400
ag27
ag28
ag29
ag30
ag31
ag32
as(dp401
g34
(lp402
NaNaNaNaNaNaNaNag36
ag37
aNaNaNaNaNastRp403
(dp404
bsg40
I11
sg41
I13
ssS'Q'
(dp405
g3
g4
(I17
(lp406
(I0
I6
tp407
a(I1
I6
tp408
a(I6
I7
tp409
a(I2
I7
tp410
a(I3
I7
tp411
a(I7
I8
tp412
a(I8
I9
tp413
a(I8
I9
tp414
a(I8
I10
tp415
a(I4
I10
tp416
a(I5
I10
tp417
a(I13
I16
tp418
a(I13
I14
tp419
a(I11
I16
tp420
a(I12
I13
tp421
a(I14
I15
tp422
a(I14
I15
tp423
a(I6
I13
tp424
aI00
(dp425
g17
S'Glutamine'
p426
s(dp427
g20
(lp428
S'H'
aS'H'
aS'H'
aS'H'
aS'H'
aS'H'
aS'C'
aS'C'
aS'C'
aS'O'
aS'N'
aS'H'
aS'H'
aS'C'
aS'C'
aS'O'
aS'N'
asg17
(lp429
g23
ag24
ag90
ag91
aS'HNdelta1'
p430
aS'HNdelta2'
p431
ag26
ag93
ag94
aS'Odelta'
p432
aS'Ndelta'
p433
ag27
ag28
ag29
ag30
ag31
ag32
as(dp434
g34
(lp435
NaNaNaNaNaNaNaNaNaNaNag36
ag37
aNaNaNaNaNastRp436
(dp437
bsg40
I14
sg41
I16
ssS'P'
(dp438
g3
g4
(I14
(lp439
(I7
I8
tp440
a(I8
I13
tp441
a(I0
I8
tp442
a(I7
I12
tp443
a(I7
I12
tp444
a(I8
I9
tp445
a(I1
I9
tp446
a(I2
I9
tp447
a(I9
I10
tp448
a(I3
I10
tp449
a(I4
I10
tp450
a(I10
I11
tp451
a(I11
I13
tp452
a(I5
I11
tp453
a(I6
I11
tp454
aI00
(dp455
g17
S'Proline'
p456
s(dp457
g17
(lp458
g28
aS'H3_1'
p459
aS'H3_2'
p460
aS'H4_1'
p461
aS'H4_2'
p462
aS'H5_1'
p463
aS'H5_2'
p464
ag30
ag190
ag189
ag188
ag187
ag31
aS'N1'
p465
asg20
(lp466
S'H'
aS'H'
aS'H'
aS'H'
aS'H'
aS'H'
aS'H'
aS'C'
aS'C'
aS'C'
aS'C'
aS'C'
aS'O'
aS'N'
as(dp467
g34
(lp468
g37
ag36
aNaNaNaNaNaNaNaNaNaNaNaNaNastRp469
(dp470
bsg40
I7
sg41
I13
ssS'S'
(dp471
g3
g4
(I11
(lp472
(I0
I3
tp473
a(I1
I3
tp474
a(I3
I4
tp475
a(I2
I4
tp476
a(I7
I10
tp477
a(I7
I8
tp478
a(I5
I10
tp479
a(I6
I7
tp480
a(I8
I9
tp481
a(I8
I9
tp482
a(I3
I7
tp483
aI00
(dp484
g17
S'Serine'
p485
s(dp486
g20
(lp487
S'H'
aS'H'
aS'H'
aS'C'
aS'O'
aS'H'
aS'H'
aS'C'
aS'C'
aS'O'
aS'N'
asg17
(lp488
g23
ag24
aS'HObeta'
p489
ag26
aS'Obeta'
p490
ag27
ag28
ag29
ag30
ag31
ag32
as(dp491
g34
(lp492
NaNaNaNag36
ag37
aNaNaNaNaNastRp493
(dp494
bsg40
I8
sg41
I10
ssS'R'
(dp495
g3
g4
(I23
(lp496
(I0
I10
tp497
a(I1
I10
tp498
a(I10
I11
tp499
a(I2
I11
tp500
a(I3
I11
tp501
a(I11
I12
tp502
a(I4
I12
tp503
a(I5
I12
tp504
a(I12
I14
tp505
a(I6
I14
tp506
a(I13
I14
tp507
a(I13
I15
tp508
a(I13
I15
tp509
a(I13
I16
tp510
a(I7
I15
tp511
a(I8
I16
tp512
a(I9
I16
tp513
a(I19
I22
tp514
a(I19
I20
tp515
a(I17
I22
tp516
a(I18
I19
tp517
a(I20
I21
tp518
a(I20
I21
tp519
a(I10
I19
tp520
aI00
(dp521
g17
S'Arginine'
p522
s(dp523
g20
(lp524
S'H'
aS'H'
aS'H'
aS'H'
aS'H'
aS'H'
aS'H'
aS'H'
aS'H'
aS'H'
aS'C'
aS'C'
aS'C'
aS'C'
aS'N'
aS'N'
aS'N'
aS'H'
aS'H'
aS'C'
aS'C'
aS'O'
aS'N'
asg17
(lp525
g23
ag24
ag90
ag91
ag225
ag226
aS'HNdelta'
p526
aS'HNomega1'
p527
aS'HNomega2_1'
p528
aS'HNomega2_2'
p529
ag26
ag93
ag94
aS'guadinino-C'
p530
ag433
aS'Nomega1'
p531
aS'Nomega2'
p532
ag27
ag28
ag29
ag30
ag31
ag32
as(dp533
g34
(lp534
NaNaNaNaNaNaNaNaNaNaNaNaNaNaNaNaNag36
ag37
aNaNaNaNaNastRp535
(dp536
bsg40
I20
sg41
I22
ssS'T'
(dp537
g3
g4
(I14
(lp538
(I0
I5
tp539
a(I5
I7
tp540
a(I5
I6
tp541
a(I1
I7
tp542
a(I2
I6
tp543
a(I3
I6
tp544
a(I4
I6
tp545
a(I10
I13
tp546
a(I10
I11
tp547
a(I8
I13
tp548
a(I9
I10
tp549
a(I11
I12
tp550
a(I11
I12
tp551
a(I5
I10
tp552
aI00
(dp553
g17
S'Threonine'
p554
s(dp555
g20
(lp556
S'H'
aS'H'
aS'H'
aS'H'
aS'H'
aS'C'
aS'C'
aS'O'
aS'H'
aS'H'
aS'C'
aS'C'
aS'O'
aS'N'
asg17
(lp557
g221
ag489
ag90
ag91
aS'Hgamma3'
p558
ag26
ag93
ag490
ag27
ag28
ag29
ag30
ag31
ag32
as(dp559
g34
(lp560
NaNaNaNaNaNaNag36
ag37
aNaNaNaNaNastRp561
(dp562
bsg40
I11
sg41
I13
ssS'W'
(dp563
g3
g4
(I24
(lp564
(I0
I8
tp565
a(I1
I8
tp566
a(I8
I9
tp567
a(I9
I10
tp568
a(I9
I11
tp569
a(I9
I11
tp570
a(I10
I12
tp571
a(I10
I12
tp572
a(I10
I13
tp573
a(I11
I17
tp574
a(I2
I11
tp575
a(I3
I17
tp576
a(I13
I17
tp577
a(I13
I14
tp578
a(I13
I14
tp579
a(I4
I14
tp580
a(I14
I15
tp581
a(I12
I16
tp582
a(I5
I12
tp583
a(I6
I15
tp584
a(I15
I16
tp585
a(I15
I16
tp586
a(I7
I16
tp587
a(I20
I23
tp588
a(I20
I21
tp589
a(I18
I23
tp590
a(I19
I20
tp591
a(I21
I22
tp592
a(I21
I22
tp593
a(I8
I20
tp594
aI00
(dp595
g17
S'Tryptophan'
p596
s(dp597
g20
(lp598
S'H'
aS'H'
aS'H'
aS'H'
aS'H'
aS'H'
aS'H'
aS'H'
aS'C'
aS'C'
aS'C'
aS'C'
aS'C'
aS'C'
aS'C'
aS'C'
aS'C'
aS'N'
aS'H'
aS'H'
aS'C'
aS'C'
aS'O'
aS'N'
asg17
(lp599
g23
ag24
ag184
aS'HN1'
p600
aS'H7'
p601
ag182
ag180
ag181
ag26
ag189
aS'C3a'
p602
ag190
ag188
aS'C7a'
p603
aS'C7'
p604
ag186
ag187
ag465
ag27
ag28
ag29
ag30
ag31
ag32
as(dp605
g34
(lp606
NaNaNaNaNaNaNaNaNaNaNaNaNaNaNaNaNaNaNaNaNaNaNag36
ag37
aNaNaNaNaNastRp607
(dp608
bsg40
I21
sg41
I23
ssS'V'
(dp609
g3
g4
(I16
(lp610
(I7
I8
tp611
a(I7
I9
tp612
a(I0
I7
tp613
a(I1
I8
tp614
a(I2
I8
tp615
a(I3
I8
tp616
a(I4
I9
tp617
a(I5
I9
tp618
a(I6
I9
tp619
a(I12
I15
tp620
a(I12
I13
tp621
a(I10
I15
tp622
a(I11
I12
tp623
a(I13
I14
tp624
a(I13
I14
tp625
a(I7
I12
tp626
aI00
(dp627
g17
S'Valine'
p628
s(dp629
g20
(lp630
S'H'
aS'H'
aS'H'
aS'H'
aS'H'
aS'H'
aS'H'
aS'C'
aS'C'
aS'C'
aS'H'
aS'H'
aS'C'
aS'C'
aS'O'
aS'N'
asg17
(lp631
g221
ag222
ag223
ag224
ag90
ag91
ag558
ag26
ag228
ag93
ag27
ag28
ag29
ag30
ag31
ag32
as(dp632
g34
(lp633
NaNaNaNaNaNaNaNaNag36
ag37
aNaNaNaNaNastRp634
(dp635
bsg40
I13
sg41
I15
ssS'Y'
(dp636
g3
g4
(I21
(lp637
(I0
I7
tp638
a(I1
I7
tp639
a(I7
I8
tp640
a(I8
I9
tp641
a(I8
I9
tp642
a(I8
I10
tp643
a(I2
I9
tp644
a(I9
I11
tp645
a(I3
I10
tp646
a(I10
I12
tp647
a(I10
I12
tp648
a(I4
I11
tp649
a(I11
I13
tp650
a(I11
I13
tp651
a(I5
I12
tp652
a(I12
I13
tp653
a(I13
I14
tp654
a(I6
I14
tp655
a(I17
I20
tp656
a(I17
I18
tp657
a(I15
I20
tp658
a(I16
I17
tp659
a(I18
I19
tp660
a(I18
I19
tp661
a(I7
I17
tp662
aI00
(dp663
g17
S'Tyrosine'
p664
s(dp665
g20
(lp666
S'H'
aS'H'
aS'H'
aS'H'
aS'H'
aS'H'
aS'H'
aS'C'
aS'C'
aS'C'
aS'C'
aS'C'
aS'C'
aS'C'
aS'O'
aS'H'
aS'H'
aS'C'
aS'C'
aS'O'
aS'N'
asg17
(lp667
g23
ag24
ag180
ag184
ag181
ag183
aS'HO4'
p668
ag26
ag185
ag186
ag190
ag187
ag189
ag188
aS'O4'
p669
ag27
ag28
ag29
ag30
ag31
ag32
as(dp670
g34
(lp671
NaNaNaNaNaNaNaNaNaNaNaNaNaNaNaNaNaNag36
ag37
aNaNaNaNaNastRp672
(dp673
bsg40
I18
sg41
I20
ss.