(dp1
S'A'
cigraph
Graph
p2
(I10
(lp3
(I0
I3
tp4
a(I1
I3
tp5
a(I2
I3
tp6
a(I6
I9
tp7
a(I6
I7
tp8
a(I4
I9
tp9
a(I5
I6
tp10
a(I7
I8
tp11
a(I7
I8
tp12
a(I3
I6
tp13
aI00
(dp14
S'name'
p15
S'Alanine'
p16
s(dp17
S'elem'
p18
(lp19
S'H'
aS'H'
aS'H'
aS'C'
aS'H'
aS'H'
aS'C'
aS'C'
aS'O'
aS'N'
asg15
(lp20
S'Hbeta1'
p21
aS'Hbeta2'
p22
aS'Hbeta3'
p23
aS'Cbeta'
p24
aS'HNalpha'
p25
aS'Halpha'
p26
aS'Calpha'
p27
aS'Ccarbo'
p28
aS'Ocarbo'
p29
aS'Nalpha'
p30
as(dp31
S'Roep'
p32
(lp33
NaNaNaS'cz'
p34
aS'ax'
p35
aNaNaNaNaNastRp36
(dp37
bsS'C'
g2
(I11
(lp38
(I0
I3
tp39
a(I1
I3
tp40
a(I3
I4
tp41
a(I2
I4
tp42
a(I7
I10
tp43
a(I7
I8
tp44
a(I5
I10
tp45
a(I6
I7
tp46
a(I8
I9
tp47
a(I8
I9
tp48
a(I3
I7
tp49
aI00
(dp50
g15
S'Cysteine'
p51
s(dp52
g18
(lp53
S'H'
aS'H'
aS'H'
aS'C'
aS'S'
aS'H'
aS'H'
aS'C'
aS'C'
aS'O'
aS'N'
asg15
(lp54
g21
ag22
aS'HSbeta'
p55
ag24
aS'Sbeta'
p56
ag25
ag26
ag27
ag28
ag29
ag30
as(dp57
g32
(lp58
NaNaNaNag34
ag35
aNaNaNaNaNastRp59
(dp60
bsS'E'
g2
(I16
(lp61
(I0
I5
tp62
a(I1
I5
tp63
a(I5
I6
tp64
a(I2
I6
tp65
a(I3
I6
tp66
a(I6
I7
tp67
a(I7
I8
tp68
a(I7
I8
tp69
a(I7
I9
tp70
a(I4
I9
tp71
a(I12
I15
tp72
a(I12
I13
tp73
a(I10
I15
tp74
a(I11
I12
tp75
a(I13
I14
tp76
a(I13
I14
tp77
a(I5
I12
tp78
aI00
(dp79
g15
S'Glutamic acid'
p80
s(dp81
g18
(lp82
S'H'
aS'H'
aS'H'
aS'H'
aS'H'
aS'C'
aS'C'
aS'C'
aS'O'
aS'O'
aS'H'
aS'H'
aS'C'
aS'C'
aS'O'
aS'N'
asg15
(lp83
g21
ag22
aS'Hgamma1'
p84
aS'Hgamma2'
p85
aS'HOdelta'
p86
ag24
aS'Cgamma'
p87
aS'Cdelta'
p88
aS'Odelta1'
p89
aS'Odelta2'
p90
ag25
ag26
ag27
ag28
ag29
ag30
as(dp91
g32
(lp92
NaNaNaNaNaNaNaNaNaNag34
ag35
aNaNaNaNaNastRp93
(dp94
bsS'D'
g2
(I13
(lp95
(I0
I3
tp96
a(I1
I3
tp97
a(I3
I4
tp98
a(I4
I5
tp99
a(I4
I5
tp100
a(I4
I6
tp101
a(I2
I6
tp102
a(I9
I12
tp103
a(I9
I10
tp104
a(I7
I12
tp105
a(I8
I9
tp106
a(I10
I11
tp107
a(I10
I11
tp108
a(I3
I9
tp109
aI00
(dp110
g15
S'Aspartic acid'
p111
s(dp112
g18
(lp113
S'H'
aS'H'
aS'H'
aS'C'
aS'C'
aS'O'
aS'O'
aS'H'
aS'H'
aS'C'
aS'C'
aS'O'
aS'N'
asg15
(lp114
g21
ag22
aS'HOgamma2'
p115
ag24
ag87
aS'Ogamma1'
p116
aS'Ogamma2'
p117
ag25
ag26
ag27
ag28
ag29
ag30
as(dp118
g32
(lp119
NaNaNaNaNaNaNag34
ag35
aNaNaNaNaNastRp120
(dp121
bsS'G'
g2
(I7
(lp122
(I2
I5
tp123
a(I2
I3
tp124
a(I0
I5
tp125
a(I1
I2
tp126
a(I3
I4
tp127
a(I3
I4
tp128
a(I2
I6
tp129
aI00
(dp130
g15
S'Glycine'
p131
s(dp132
g15
(lp133
g25
aS'Halpha1'
p134
ag27
ag28
ag29
ag30
aS'Halpha2'
p135
asg18
(lp136
S'H'
aS'H'
aS'C'
aS'C'
aS'O'
aS'N'
aS'H'
as(dp137
g32
(lp138
g34
ag35
aNaNaNaNaNastRp139
(dp140
bsS'F'
g2
(I20
(lp141
(I0
I7
tp142
a(I1
I7
tp143
a(I7
I8
tp144
a(I8
I9
tp145
a(I8
I9
tp146
a(I8
I13
tp147
a(I2
I9
tp148
a(I9
I10
tp149
a(I3
I10
tp150
a(I10
I11
tp151
a(I10
I11
tp152
a(I4
I11
tp153
a(I11
I12
tp154
a(I5
I12
tp155
a(I12
I13
tp156
a(I12
I13
tp157
a(I6
I13
tp158
a(I16
I19
tp159
a(I16
I17
tp160
a(I14
I19
tp161
a(I15
I16
tp162
a(I17
I18
tp163
a(I17
I18
tp164
a(I7
I16
tp165
aI00
(dp166
g15
S'Phenylalanine'
p167
s(dp168
g18
(lp169
S'H'
aS'H'
aS'H'
aS'H'
aS'H'
aS'H'
aS'H'
aS'C'
aS'C'
aS'C'
aS'C'
aS'C'
aS'C'
aS'C'
aS'H'
aS'H'
aS'C'
aS'C'
aS'O'
aS'N'
asg15
(lp170
g21
ag22
aS'H6'
p171
aS'H5'
p172
aS'H4'
p173
aS'H3'
p174
aS'H2'
p175
ag24
aS'C1'
p176
aS'C6'
p177
aS'C5'
p178
aS'C4'
p179
aS'C3'
p180
aS'C2'
p181
ag25
ag26
ag27
ag28
ag29
ag30
as(dp182
g32
(lp183
NaNaNaNaNaNaNaNaNaNaNaNaNaNaNaNaNag34
ag35
aNaNaNaNaNastRp184
(dp185
bsS'I'
g2
(I19
(lp186
(I0
I9
tp187
a(I9
I10
tp188
a(I9
I11
tp189
a(I1
I10
tp190
a(I2
I10
tp191
a(I3
I10
tp192
a(I4
I11
tp193
a(I5
I11
tp194
a(I11
I12
tp195
a(I6
I12
tp196
a(I7
I12
tp197
a(I8
I12
tp198
a(I15
I18
tp199
a(I15
I16
tp200
a(I13
I18
tp201
a(I14
I15
tp202
a(I16
I17
tp203
a(I16
I17
tp204
a(I9
I15
tp205
aI00
(dp206
g15
S'Isoleucine'
p207
s(dp208
g18
(lp209
S'H'
aS'H'
aS'H'
aS'H'
aS'H'
aS'H'
aS'H'
aS'H'
aS'H'
aS'C'
aS'C'
aS'C'
aS'C'
aS'H'
aS'H'
aS'C'
aS'C'
aS'O'
aS'N'
asg15
(lp210
S'Hbeta'
p211
aS'Hbeta1_1'
p212
aS'Hbeta1_2'
p213
aS'Hbeta1_3'
p214
ag84
ag85
aS'Hdelta1'
p215
aS'Hdelta2'
p216
aS'Hdelta3'
p217
ag24
aS'Cbeta1'
p218
ag87
ag88
ag25
ag26
ag27
ag28
ag29
ag30
as(dp219
g32
(lp220
NaNaNaNaNaNaNaNaNaNaNaNag34
ag35
aNaNaNaNaNastRp221
(dp222
bsS'H'
g2
(I17
(lp223
(I0
I5
tp224
a(I1
I5
tp225
a(I5
I6
tp226
a(I6
I7
tp227
a(I6
I7
tp228
a(I6
I9
tp229
a(I8
I9
tp230
a(I8
I9
tp231
a(I3
I8
tp232
a(I8
I10
tp233
a(I2
I10
tp234
a(I7
I10
tp235
a(I4
I7
tp236
a(I13
I16
tp237
a(I13
I14
tp238
a(I11
I16
tp239
a(I12
I13
tp240
a(I14
I15
tp241
a(I14
I15
tp242
a(I5
I13
tp243
aI00
(dp244
g15
S'Histidine'
p245
s(dp246
g18
(lp247
S'H'
aS'H'
aS'H'
aS'H'
aS'H'
aS'C'
aS'C'
aS'C'
aS'C'
aS'N'
aS'N'
aS'H'
aS'H'
aS'C'
aS'C'
aS'O'
aS'N'
asg15
(lp248
g21
ag22
aS'Hpi'
p249
aS'Htau'
p250
ag173
ag24
ag179
ag178
ag181
aS'Npi'
p251
aS'Ntau'
p252
ag25
ag26
ag27
ag28
ag29
ag30
as(dp253
g32
(lp254
NaNaNaNaNaNaNaNaNaNaNaNaNag34
ag35
aNaNaNaNaNastRp255
(dp256
bsS'K'
g2
(I21
(lp257
(I0
I10
tp258
a(I1
I10
tp259
a(I10
I11
tp260
a(I2
I11
tp261
a(I3
I11
tp262
a(I11
I12
tp263
a(I4
I12
tp264
a(I5
I12
tp265
a(I12
I13
tp266
a(I6
I13
tp267
a(I7
I13
tp268
a(I13
I14
tp269
a(I8
I14
tp270
a(I9
I14
tp271
a(I17
I20
tp272
a(I17
I18
tp273
a(I15
I20
tp274
a(I16
I17
tp275
a(I18
I19
tp276
a(I18
I19
tp277
a(I10
I17
tp278
aI00
(dp279
g15
S'Lysine'
p280
s(dp281
g18
(lp282
S'H'
aS'H'
aS'H'
aS'H'
aS'H'
aS'H'
aS'H'
aS'H'
aS'H'
aS'H'
aS'C'
aS'C'
aS'C'
aS'C'
aS'N'
aS'H'
aS'H'
aS'C'
aS'C'
aS'O'
aS'N'
asg15
(lp283
g21
ag22
ag84
ag85
ag215
ag216
aS'Hepsilon1'
p284
aS'Hepsilon2'
p285
aS'HNepsilon1'
p286
aS'HNepsilon2'
p287
ag24
ag87
ag88
aS'Cepsilon'
p288
aS'Nepsilon'
p289
ag25
ag26
ag27
ag28
ag29
ag30
as(dp290
g32
(lp291
NaNaNaNaNaNaNaNaNaNaNaNaNaNag34
ag35
aNaNaNaNaNastRp292
(dp293
bsS'M'
g2
(I17
(lp294
(I0
I7
tp295
a(I1
I7
tp296
a(I7
I8
tp297
a(I2
I8
tp298
a(I3
I8
tp299
a(I8
I10
tp300
a(I9
I10
tp301
a(I4
I9
tp302
a(I5
I9
tp303
a(I6
I9
tp304
a(I13
I16
tp305
a(I13
I14
tp306
a(I11
I16
tp307
a(I12
I13
tp308
a(I14
I15
tp309
a(I14
I15
tp310
a(I7
I13
tp311
aI00
(dp312
g15
S'Methionine'
p313
s(dp314
g18
(lp315
S'H'
aS'H'
aS'H'
aS'H'
aS'H'
aS'H'
aS'H'
aS'C'
aS'C'
aS'C'
aS'S'
aS'H'
aS'H'
aS'C'
aS'C'
aS'O'
aS'N'
asg15
(lp316
g21
ag22
ag84
ag85
ag284
ag285
aS'Hepsilon3'
p317
ag24
ag87
ag288
aS'Sdelta'
p318
ag25
ag26
ag27
ag28
ag29
ag30
as(dp319
g32
(lp320
NaNaNaNaNaNaNaNaNaNag34
ag35
aNaNaNaNaNastRp321
(dp322
bsS'L'
g2
(I19
(lp323
(I0
I9
tp324
a(I1
I9
tp325
a(I9
I10
tp326
a(I2
I10
tp327
a(I10
I11
tp328
a(I10
I12
tp329
a(I3
I11
tp330
a(I4
I11
tp331
a(I5
I11
tp332
a(I6
I12
tp333
a(I7
I12
tp334
a(I8
I12
tp335
a(I15
I18
tp336
a(I15
I16
tp337
a(I13
I18
tp338
a(I14
I15
tp339
a(I16
I17
tp340
a(I16
I17
tp341
a(I9
I15
tp342
aI00
(dp343
g15
S'Leucine'
p344
s(dp345
g18
(lp346
S'H'
aS'H'
aS'H'
aS'H'
aS'H'
aS'H'
aS'H'
aS'H'
aS'H'
aS'C'
aS'C'
aS'C'
aS'C'
aS'H'
aS'H'
aS'C'
aS'C'
aS'O'
aS'N'
asg15
(lp347
g21
ag22
aS'Hgamma'
p348
aS'Hgamma1_1'
p349
aS'Hgamma1_2'
p350
aS'Hgamma1_3'
p351
aS'Hgamma2_1'
p352
aS'Hgamma2_2'
p353
aS'Hgamma2_3'
p354
ag24
ag87
aS'Cgamma1'
p355
aS'Cgamma2'
p356
ag25
ag26
ag27
ag28
ag29
ag30
as(dp357
g32
(lp358
NaNaNaNaNaNaNaNaNaNaNaNag34
ag35
aNaNaNaNaNastRp359
(dp360
bsS'N'
g2
(I14
(lp361
(I0
I4
tp362
a(I1
I4
tp363
a(I4
I5
tp364
a(I5
I6
tp365
a(I5
I6
tp366
a(I5
I7
tp367
a(I2
I7
tp368
a(I3
I7
tp369
a(I10
I13
tp370
a(I10
I11
tp371
a(I8
I13
tp372
a(I9
I10
tp373
a(I11
I12
tp374
a(I11
I12
tp375
a(I4
I10
tp376
aI00
(dp377
g15
S'Asparagine'
p378
s(dp379
g18
(lp380
S'H'
aS'H'
aS'H'
aS'H'
aS'C'
aS'C'
aS'O'
aS'N'
aS'H'
aS'H'
aS'C'
aS'C'
aS'O'
aS'N'
asg15
(lp381
g21
ag22
aS'HNgamma1'
p382
aS'HNgamma2'
p383
ag24
ag87
aS'Ogamma'
p384
aS'Ngamma'
p385
ag25
ag26
ag27
ag28
ag29
ag30
as(dp386
g32
(lp387
NaNaNaNaNaNaNaNag34
ag35
aNaNaNaNaNastRp388
(dp389
bsS'Q'
g2
(I17
(lp390
(I0
I6
tp391
a(I1
I6
tp392
a(I6
I7
tp393
a(I2
I7
tp394
a(I3
I7
tp395
a(I7
I8
tp396
a(I8
I9
tp397
a(I8
I9
tp398
a(I8
I10
tp399
a(I4
I10
tp400
a(I5
I10
tp401
a(I13
I16
tp402
a(I13
I14
tp403
a(I11
I16
tp404
a(I12
I13
tp405
a(I14
I15
tp406
a(I14
I15
tp407
a(I6
I13
tp408
aI00
(dp409
g15
S'Glutamine'
p410
s(dp411
g18
(lp412
S'H'
aS'H'
aS'H'
aS'H'
aS'H'
aS'H'
aS'C'
aS'C'
aS'C'
aS'O'
aS'N'
aS'H'
aS'H'
aS'C'
aS'C'
aS'O'
aS'N'
asg15
(lp413
g21
ag22
ag84
ag85
aS'HNdelta1'
p414
aS'HNdelta2'
p415
ag24
ag87
ag88
aS'Odelta'
p416
aS'Ndelta'
p417
ag25
ag26
ag27
ag28
ag29
ag30
as(dp418
g32
(lp419
NaNaNaNaNaNaNaNaNaNaNag34
ag35
aNaNaNaNaNastRp420
(dp421
bsS'P'
g2
(I14
(lp422
(I7
I8
tp423
a(I8
I13
tp424
a(I0
I8
tp425
a(I7
I12
tp426
a(I7
I12
tp427
a(I8
I9
tp428
a(I1
I9
tp429
a(I2
I9
tp430
a(I9
I10
tp431
a(I3
I10
tp432
a(I4
I10
tp433
a(I10
I11
tp434
a(I11
I13
tp435
a(I5
I11
tp436
a(I6
I11
tp437
aI00
(dp438
g15
S'Proline'
p439
s(dp440
g15
(lp441
g26
aS'H3_1'
p442
aS'H3_2'
p443
aS'H4_1'
p444
aS'H4_2'
p445
aS'H5_1'
p446
aS'H5_2'
p447
ag28
ag181
ag180
ag179
ag178
ag29
aS'N1'
p448
asg18
(lp449
S'H'
aS'H'
aS'H'
aS'H'
aS'H'
aS'H'
aS'H'
aS'C'
aS'C'
aS'C'
aS'C'
aS'C'
aS'O'
aS'N'
as(dp450
g32
(lp451
g35
ag34
aNaNaNaNaNaNaNaNaNaNaNaNaNastRp452
(dp453
bsS'S'
g2
(I11
(lp454
(I0
I3
tp455
a(I1
I3
tp456
a(I3
I4
tp457
a(I2
I4
tp458
a(I7
I10
tp459
a(I7
I8
tp460
a(I5
I10
tp461
a(I6
I7
tp462
a(I8
I9
tp463
a(I8
I9
tp464
a(I3
I7
tp465
aI00
(dp466
g15
S'Serine'
p467
s(dp468
g18
(lp469
S'H'
aS'H'
aS'H'
aS'C'
aS'O'
aS'H'
aS'H'
aS'C'
aS'C'
aS'O'
aS'N'
asg15
(lp470
g21
ag22
aS'HObeta'
p471
ag24
aS'Obeta'
p472
ag25
ag26
ag27
ag28
ag29
ag30
as(dp473
g32
(lp474
NaNaNaNag34
ag35
aNaNaNaNaNastRp475
(dp476
bsS'R'
g2
(I23
(lp477
(I0
I10
tp478
a(I1
I10
tp479
a(I10
I11
tp480
a(I2
I11
tp481
a(I3
I11
tp482
a(I11
I12
tp483
a(I4
I12
tp484
a(I5
I12
tp485
a(I12
I14
tp486
a(I6
I14
tp487
a(I13
I14
tp488
a(I13
I15
tp489
a(I13
I15
tp490
a(I13
I16
tp491
a(I7
I15
tp492
a(I8
I16
tp493
a(I9
I16
tp494
a(I19
I22
tp495
a(I19
I20
tp496
a(I17
I22
tp497
a(I18
I19
tp498
a(I20
I21
tp499
a(I20
I21
tp500
a(I10
I19
tp501
aI00
(dp502
g15
S'Arginine'
p503
s(dp504
g18
(lp505
S'H'
aS'H'
aS'H'
aS'H'
aS'H'
aS'H'
aS'H'
aS'H'
aS'H'
aS'H'
aS'C'
aS'C'
aS'C'
aS'C'
aS'N'
aS'N'
aS'N'
aS'H'
aS'H'
aS'C'
aS'C'
aS'O'
aS'N'
asg15
(lp506
g21
ag22
ag84
ag85
ag215
ag216
aS'HNdelta'
p507
aS'HNomega1'
p508
aS'HNomega2_1'
p509
aS'HNomega2_2'
p510
ag24
ag87
ag88
aS'guadinino-C'
p511
ag417
aS'Nomega1'
p512
aS'Nomega2'
p513
ag25
ag26
ag27
ag28
ag29
ag30
as(dp514
g32
(lp515
NaNaNaNaNaNaNaNaNaNaNaNaNaNaNaNaNag34
ag35
aNaNaNaNaNastRp516
(dp517
bsS'T'
g2
(I14
(lp518
(I0
I5
tp519
a(I5
I7
tp520
a(I5
I6
tp521
a(I1
I7
tp522
a(I2
I6
tp523
a(I3
I6
tp524
a(I4
I6
tp525
a(I10
I13
tp526
a(I10
I11
tp527
a(I8
I13
tp528
a(I9
I10
tp529
a(I11
I12
tp530
a(I11
I12
tp531
a(I5
I10
tp532
aI00
(dp533
g15
S'Threonine'
p534
s(dp535
g18
(lp536
S'H'
aS'H'
aS'H'
aS'H'
aS'H'
aS'C'
aS'C'
aS'O'
aS'H'
aS'H'
aS'C'
aS'C'
aS'O'
aS'N'
asg15
(lp537
g211
ag471
ag84
ag85
aS'Hgamma3'
p538
ag24
ag87
ag472
ag25
ag26
ag27
ag28
ag29
ag30
as(dp539
g32
(lp540
NaNaNaNaNaNaNag34
ag35
aNaNaNaNaNastRp541
(dp542
bsS'W'
g2
(I24
(lp543
(I0
I8
tp544
a(I1
I8
tp545
a(I8
I9
tp546
a(I9
I10
tp547
a(I9
I11
tp548
a(I9
I11
tp549
a(I10
I12
tp550
a(I10
I12
tp551
a(I10
I13
tp552
a(I11
I17
tp553
a(I2
I11
tp554
a(I3
I17
tp555
a(I13
I17
tp556
a(I13
I14
tp557
a(I13
I14
tp558
a(I4
I14
tp559
a(I14
I15
tp560
a(I12
I16
tp561
a(I5
I12
tp562
a(I6
I15
tp563
a(I15
I16
tp564
a(I15
I16
tp565
a(I7
I16
tp566
a(I20
I23
tp567
a(I20
I21
tp568
a(I18
I23
tp569
a(I19
I20
tp570
a(I21
I22
tp571
a(I21
I22
tp572
a(I8
I20
tp573
aI00
(dp574
g15
S'Tryptophan'
p575
s(dp576
g18
(lp577
S'H'
aS'H'
aS'H'
aS'H'
aS'H'
aS'H'
aS'H'
aS'H'
aS'C'
aS'C'
aS'C'
aS'C'
aS'C'
aS'C'
aS'C'
aS'C'
aS'C'
aS'N'
aS'H'
aS'H'
aS'C'
aS'C'
aS'O'
aS'N'
asg15
(lp578
g21
ag22
ag175
aS'HN1'
p579
aS'H7'
p580
ag173
ag171
ag172
ag24
ag180
aS'C3a'
p581
ag181
ag179
aS'C7a'
p582
aS'C7'
p583
ag177
ag178
ag448
ag25
ag26
ag27
ag28
ag29
ag30
as(dp584
g32
(lp585
NaNaNaNaNaNaNaNaNaNaNaNaNaNaNaNaNaNaNaNaNaNaNag34
ag35
aNaNaNaNaNastRp586
(dp587
bsS'V'
g2
(I16
(lp588
(I7
I8
tp589
a(I7
I9
tp590
a(I0
I7
tp591
a(I1
I8
tp592
a(I2
I8
tp593
a(I3
I8
tp594
a(I4
I9
tp595
a(I5
I9
tp596
a(I6
I9
tp597
a(I12
I15
tp598
a(I12
I13
tp599
a(I10
I15
tp600
a(I11
I12
tp601
a(I13
I14
tp602
a(I13
I14
tp603
a(I7
I12
tp604
aI00
(dp605
g15
S'Valine'
p606
s(dp607
g18
(lp608
S'H'
aS'H'
aS'H'
aS'H'
aS'H'
aS'H'
aS'H'
aS'C'
aS'C'
aS'C'
aS'H'
aS'H'
aS'C'
aS'C'
aS'O'
aS'N'
asg15
(lp609
g211
ag212
ag213
ag214
ag84
ag85
ag538
ag24
ag218
ag87
ag25
ag26
ag27
ag28
ag29
ag30
as(dp610
g32
(lp611
NaNaNaNaNaNaNaNaNag34
ag35
aNaNaNaNaNastRp612
(dp613
bsS'Y'
g2
(I21
(lp614
(I0
I7
tp615
a(I1
I7
tp616
a(I7
I8
tp617
a(I8
I9
tp618
a(I8
I9
tp619
a(I8
I10
tp620
a(I2
I9
tp621
a(I9
I11
tp622
a(I3
I10
tp623
a(I10
I12
tp624
a(I10
I12
tp625
a(I4
I11
tp626
a(I11
I13
tp627
a(I11
I13
tp628
a(I5
I12
tp629
a(I12
I13
tp630
a(I13
I14
tp631
a(I6
I14
tp632
a(I17
I20
tp633
a(I17
I18
tp634
a(I15
I20
tp635
a(I16
I17
tp636
a(I18
I19
tp637
a(I18
I19
tp638
a(I7
I17
tp639
aI00
(dp640
g15
S'Tyrosine'
p641
s(dp642
g18
(lp643
S'H'
aS'H'
aS'H'
aS'H'
aS'H'
aS'H'
aS'H'
aS'C'
aS'C'
aS'C'
aS'C'
aS'C'
aS'C'
aS'C'
aS'O'
aS'H'
aS'H'
aS'C'
aS'C'
aS'O'
aS'N'
asg15
(lp644
g21
ag22
ag171
ag175
ag172
ag174
aS'HO4'
p645
ag24
ag176
ag177
ag181
ag178
ag180
ag179
aS'O4'
p646
ag25
ag26
ag27
ag28
ag29
ag30
as(dp647
g32
(lp648
NaNaNaNaNaNaNaNaNaNaNaNaNaNaNaNaNaNag34
ag35
aNaNaNaNaNastRp649
(dp650
bs.