(dp1
S'A'
(I9
I7
cigraph
Graph
p2
(I10
(lp3
(I0
I3
tp4
a(I1
I3
tp5
a(I2
I3
tp6
a(I6
I9
tp7
a(I6
I7
tp8
a(I4
I9
tp9
a(I5
I6
tp10
a(I7
I8
tp11
a(I7
I8
tp12
a(I3
I6
tp13
aI00
(dp14
S'name'
p15
S'Alanine'
p16
s(dp17
S'elem'
p18
(lp19
S'H'
aS'H'
aS'H'
aS'C'
aS'H'
aS'H'
aS'C'
aS'C'
aS'O'
aS'N'
asg15
(lp20
S'Hbeta1'
p21
aS'Hbeta2'
p22
aS'Hbeta3'
p23
aS'Cbeta'
p24
aS'HNalpha'
p25
aS'Halpha'
p26
aS'Calpha'
p27
aS'Ccarbo'
p28
aS'Ocarbo'
p29
aS'Nalpha'
p30
as(dp31
S'Roep'
p32
(lp33
NaNaNaS'cz'
p34
aS'ax'
p35
aNaNaNaNaNastRp36
(dp37
btp38
sS'C'
(I10
I8
g2
(I11
(lp39
(I0
I3
tp40
a(I1
I3
tp41
a(I3
I4
tp42
a(I2
I4
tp43
a(I7
I10
tp44
a(I7
I8
tp45
a(I5
I10
tp46
a(I6
I7
tp47
a(I8
I9
tp48
a(I8
I9
tp49
a(I3
I7
tp50
aI00
(dp51
g15
S'Cysteine'
p52
s(dp53
g18
(lp54
S'H'
aS'H'
aS'H'
aS'C'
aS'S'
aS'H'
aS'H'
aS'C'
aS'C'
aS'O'
aS'N'
asg15
(lp55
g21
ag22
aS'HSbeta'
p56
ag24
aS'Sbeta'
p57
ag25
ag26
ag27
ag28
ag29
ag30
as(dp58
g32
(lp59
NaNaNaNag34
ag35
aNaNaNaNaNastRp60
(dp61
btp62
sS'E'
(I15
I13
g2
(I16
(lp63
(I0
I5
tp64
a(I1
I5
tp65
a(I5
I6
tp66
a(I2
I6
tp67
a(I3
I6
tp68
a(I6
I7
tp69
a(I7
I8
tp70
a(I7
I8
tp71
a(I7
I9
tp72
a(I4
I9
tp73
a(I12
I15
tp74
a(I12
I13
tp75
a(I10
I15
tp76
a(I11
I12
tp77
a(I13
I14
tp78
a(I13
I14
tp79
a(I5
I12
tp80
aI00
(dp81
g15
S'Glutamic acid'
p82
s(dp83
g18
(lp84
S'H'
aS'H'
aS'H'
aS'H'
aS'H'
aS'C'
aS'C'
aS'C'
aS'O'
aS'O'
aS'H'
aS'H'
aS'C'
aS'C'
aS'O'
aS'N'
asg15
(lp85
g21
ag22
aS'Hgamma1'
p86
aS'Hgamma2'
p87
aS'HOdelta'
p88
ag24
aS'Cgamma'
p89
aS'Cdelta'
p90
aS'Odelta1'
p91
aS'Odelta2'
p92
ag25
ag26
ag27
ag28
ag29
ag30
as(dp93
g32
(lp94
NaNaNaNaNaNaNaNaNaNag34
ag35
aNaNaNaNaNastRp95
(dp96
btp97
sS'D'
(I12
I10
g2
(I13
(lp98
(I0
I3
tp99
a(I1
I3
tp100
a(I3
I4
tp101
a(I4
I5
tp102
a(I4
I5
tp103
a(I4
I6
tp104
a(I2
I6
tp105
a(I9
I12
tp106
a(I9
I10
tp107
a(I7
I12
tp108
a(I8
I9
tp109
a(I10
I11
tp110
a(I10
I11
tp111
a(I3
I9
tp112
aI00
(dp113
g15
S'Aspartic acid'
p114
s(dp115
g18
(lp116
S'H'
aS'H'
aS'H'
aS'C'
aS'C'
aS'O'
aS'O'
aS'H'
aS'H'
aS'C'
aS'C'
aS'O'
aS'N'
asg15
(lp117
g21
ag22
aS'HOgamma2'
p118
ag24
ag89
aS'Ogamma1'
p119
aS'Ogamma2'
p120
ag25
ag26
ag27
ag28
ag29
ag30
as(dp121
g32
(lp122
NaNaNaNaNaNaNag34
ag35
aNaNaNaNaNastRp123
(dp124
btp125
sS'G'
(I5
I3
g2
(I7
(lp126
(I2
I5
tp127
a(I2
I3
tp128
a(I0
I5
tp129
a(I1
I2
tp130
a(I3
I4
tp131
a(I3
I4
tp132
a(I2
I6
tp133
aI00
(dp134
g15
S'Glycine'
p135
s(dp136
g15
(lp137
g25
aS'Halpha1'
p138
ag27
ag28
ag29
ag30
aS'Halpha2'
p139
asg18
(lp140
S'H'
aS'H'
aS'C'
aS'C'
aS'O'
aS'N'
aS'H'
as(dp141
g32
(lp142
g34
ag35
aNaNaNaNaNastRp143
(dp144
btp145
sS'F'
(I19
I17
g2
(I20
(lp146
(I0
I7
tp147
a(I1
I7
tp148
a(I7
I8
tp149
a(I8
I9
tp150
a(I8
I9
tp151
a(I8
I13
tp152
a(I2
I9
tp153
a(I9
I10
tp154
a(I3
I10
tp155
a(I10
I11
tp156
a(I10
I11
tp157
a(I4
I11
tp158
a(I11
I12
tp159
a(I5
I12
tp160
a(I12
I13
tp161
a(I12
I13
tp162
a(I6
I13
tp163
a(I16
I19
tp164
a(I16
I17
tp165
a(I14
I19
tp166
a(I15
I16
tp167
a(I17
I18
tp168
a(I17
I18
tp169
a(I7
I16
tp170
aI00
(dp171
g15
S'Phenylalanine'
p172
s(dp173
g18
(lp174
S'H'
aS'H'
aS'H'
aS'H'
aS'H'
aS'H'
aS'H'
aS'C'
aS'C'
aS'C'
aS'C'
aS'C'
aS'C'
aS'C'
aS'H'
aS'H'
aS'C'
aS'C'
aS'O'
aS'N'
asg15
(lp175
g21
ag22
aS'H6'
p176
aS'H5'
p177
aS'H4'
p178
aS'H3'
p179
aS'H2'
p180
ag24
aS'C1'
p181
aS'C6'
p182
aS'C5'
p183
aS'C4'
p184
aS'C3'
p185
aS'C2'
p186
ag25
ag26
ag27
ag28
ag29
ag30
as(dp187
g32
(lp188
NaNaNaNaNaNaNaNaNaNaNaNaNaNaNaNaNag34
ag35
aNaNaNaNaNastRp189
(dp190
btp191
sS'I'
(I18
I16
g2
(I19
(lp192
(I0
I9
tp193
a(I9
I10
tp194
a(I9
I11
tp195
a(I1
I10
tp196
a(I2
I10
tp197
a(I3
I10
tp198
a(I4
I11
tp199
a(I5
I11
tp200
a(I11
I12
tp201
a(I6
I12
tp202
a(I7
I12
tp203
a(I8
I12
tp204
a(I15
I18
tp205
a(I15
I16
tp206
a(I13
I18
tp207
a(I14
I15
tp208
a(I16
I17
tp209
a(I16
I17
tp210
a(I9
I15
tp211
aI00
(dp212
g15
S'Isoleucine'
p213
s(dp214
g18
(lp215
S'H'
aS'H'
aS'H'
aS'H'
aS'H'
aS'H'
aS'H'
aS'H'
aS'H'
aS'C'
aS'C'
aS'C'
aS'C'
aS'H'
aS'H'
aS'C'
aS'C'
aS'O'
aS'N'
asg15
(lp216
S'Hbeta'
p217
aS'Hbeta1_1'
p218
aS'Hbeta1_2'
p219
aS'Hbeta1_3'
p220
ag86
ag87
aS'Hdelta1'
p221
aS'Hdelta2'
p222
aS'Hdelta3'
p223
ag24
aS'Cbeta1'
p224
ag89
ag90
ag25
ag26
ag27
ag28
ag29
ag30
as(dp225
g32
(lp226
NaNaNaNaNaNaNaNaNaNaNaNag34
ag35
aNaNaNaNaNastRp227
(dp228
btp229
sS'H'
(I16
I14
g2
(I17
(lp230
(I0
I5
tp231
a(I1
I5
tp232
a(I5
I6
tp233
a(I6
I7
tp234
a(I6
I7
tp235
a(I6
I9
tp236
a(I8
I9
tp237
a(I8
I9
tp238
a(I3
I8
tp239
a(I8
I10
tp240
a(I2
I10
tp241
a(I7
I10
tp242
a(I4
I7
tp243
a(I13
I16
tp244
a(I13
I14
tp245
a(I11
I16
tp246
a(I12
I13
tp247
a(I14
I15
tp248
a(I14
I15
tp249
a(I5
I13
tp250
aI00
(dp251
g15
S'Histidine'
p252
s(dp253
g18
(lp254
S'H'
aS'H'
aS'H'
aS'H'
aS'H'
aS'C'
aS'C'
aS'C'
aS'C'
aS'N'
aS'N'
aS'H'
aS'H'
aS'C'
aS'C'
aS'O'
aS'N'
asg15
(lp255
g21
ag22
aS'Hpi'
p256
aS'Htau'
p257
ag178
ag24
ag184
ag183
ag186
aS'Npi'
p258
aS'Ntau'
p259
ag25
ag26
ag27
ag28
ag29
ag30
as(dp260
g32
(lp261
NaNaNaNaNaNaNaNaNaNaNaNaNag34
ag35
aNaNaNaNaNastRp262
(dp263
btp264
sS'K'
(I20
I18
g2
(I21
(lp265
(I0
I10
tp266
a(I1
I10
tp267
a(I10
I11
tp268
a(I2
I11
tp269
a(I3
I11
tp270
a(I11
I12
tp271
a(I4
I12
tp272
a(I5
I12
tp273
a(I12
I13
tp274
a(I6
I13
tp275
a(I7
I13
tp276
a(I13
I14
tp277
a(I8
I14
tp278
a(I9
I14
tp279
a(I17
I20
tp280
a(I17
I18
tp281
a(I15
I20
tp282
a(I16
I17
tp283
a(I18
I19
tp284
a(I18
I19
tp285
a(I10
I17
tp286
aI00
(dp287
g15
S'Lysine'
p288
s(dp289
g18
(lp290
S'H'
aS'H'
aS'H'
aS'H'
aS'H'
aS'H'
aS'H'
aS'H'
aS'H'
aS'H'
aS'C'
aS'C'
aS'C'
aS'C'
aS'N'
aS'H'
aS'H'
aS'C'
aS'C'
aS'O'
aS'N'
asg15
(lp291
g21
ag22
ag86
ag87
ag221
ag222
aS'Hepsilon1'
p292
aS'Hepsilon2'
p293
aS'HNepsilon1'
p294
aS'HNepsilon2'
p295
ag24
ag89
ag90
aS'Cepsilon'
p296
aS'Nepsilon'
p297
ag25
ag26
ag27
ag28
ag29
ag30
as(dp298
g32
(lp299
NaNaNaNaNaNaNaNaNaNaNaNaNaNag34
ag35
aNaNaNaNaNastRp300
(dp301
btp302
sS'M'
(I16
I14
g2
(I17
(lp303
(I0
I7
tp304
a(I1
I7
tp305
a(I7
I8
tp306
a(I2
I8
tp307
a(I3
I8
tp308
a(I8
I10
tp309
a(I9
I10
tp310
a(I4
I9
tp311
a(I5
I9
tp312
a(I6
I9
tp313
a(I13
I16
tp314
a(I13
I14
tp315
a(I11
I16
tp316
a(I12
I13
tp317
a(I14
I15
tp318
a(I14
I15
tp319
a(I7
I13
tp320
aI00
(dp321
g15
S'Methionine'
p322
s(dp323
g18
(lp324
S'H'
aS'H'
aS'H'
aS'H'
aS'H'
aS'H'
aS'H'
aS'C'
aS'C'
aS'C'
aS'S'
aS'H'
aS'H'
aS'C'
aS'C'
aS'O'
aS'N'
asg15
(lp325
g21
ag22
ag86
ag87
ag292
ag293
aS'Hepsilon3'
p326
ag24
ag89
ag296
aS'Sdelta'
p327
ag25
ag26
ag27
ag28
ag29
ag30
as(dp328
g32
(lp329
NaNaNaNaNaNaNaNaNaNag34
ag35
aNaNaNaNaNastRp330
(dp331
btp332
sS'L'
(I18
I16
g2
(I19
(lp333
(I0
I9
tp334
a(I1
I9
tp335
a(I9
I10
tp336
a(I2
I10
tp337
a(I10
I11
tp338
a(I10
I12
tp339
a(I3
I11
tp340
a(I4
I11
tp341
a(I5
I11
tp342
a(I6
I12
tp343
a(I7
I12
tp344
a(I8
I12
tp345
a(I15
I18
tp346
a(I15
I16
tp347
a(I13
I18
tp348
a(I14
I15
tp349
a(I16
I17
tp350
a(I16
I17
tp351
a(I9
I15
tp352
aI00
(dp353
g15
S'Leucine'
p354
s(dp355
g18
(lp356
S'H'
aS'H'
aS'H'
aS'H'
aS'H'
aS'H'
aS'H'
aS'H'
aS'H'
aS'C'
aS'C'
aS'C'
aS'C'
aS'H'
aS'H'
aS'C'
aS'C'
aS'O'
aS'N'
asg15
(lp357
g21
ag22
aS'Hgamma'
p358
aS'Hgamma1_1'
p359
aS'Hgamma1_2'
p360
aS'Hgamma1_3'
p361
aS'Hgamma2_1'
p362
aS'Hgamma2_2'
p363
aS'Hgamma2_3'
p364
ag24
ag89
aS'Cgamma1'
p365
aS'Cgamma2'
p366
ag25
ag26
ag27
ag28
ag29
ag30
as(dp367
g32
(lp368
NaNaNaNaNaNaNaNaNaNaNaNag34
ag35
aNaNaNaNaNastRp369
(dp370
btp371
sS'N'
(I13
I11
g2
(I14
(lp372
(I0
I4
tp373
a(I1
I4
tp374
a(I4
I5
tp375
a(I5
I6
tp376
a(I5
I6
tp377
a(I5
I7
tp378
a(I2
I7
tp379
a(I3
I7
tp380
a(I10
I13
tp381
a(I10
I11
tp382
a(I8
I13
tp383
a(I9
I10
tp384
a(I11
I12
tp385
a(I11
I12
tp386
a(I4
I10
tp387
aI00
(dp388
g15
S'Asparagine'
p389
s(dp390
g18
(lp391
S'H'
aS'H'
aS'H'
aS'H'
aS'C'
aS'C'
aS'O'
aS'N'
aS'H'
aS'H'
aS'C'
aS'C'
aS'O'
aS'N'
asg15
(lp392
g21
ag22
aS'HNgamma1'
p393
aS'HNgamma2'
p394
ag24
ag89
aS'Ogamma'
p395
aS'Ngamma'
p396
ag25
ag26
ag27
ag28
ag29
ag30
as(dp397
g32
(lp398
NaNaNaNaNaNaNaNag34
ag35
aNaNaNaNaNastRp399
(dp400
btp401
sS'Q'
(I16
I14
g2
(I17
(lp402
(I0
I6
tp403
a(I1
I6
tp404
a(I6
I7
tp405
a(I2
I7
tp406
a(I3
I7
tp407
a(I7
I8
tp408
a(I8
I9
tp409
a(I8
I9
tp410
a(I8
I10
tp411
a(I4
I10
tp412
a(I5
I10
tp413
a(I13
I16
tp414
a(I13
I14
tp415
a(I11
I16
tp416
a(I12
I13
tp417
a(I14
I15
tp418
a(I14
I15
tp419
a(I6
I13
tp420
aI00
(dp421
g15
S'Glutamine'
p422
s(dp423
g18
(lp424
S'H'
aS'H'
aS'H'
aS'H'
aS'H'
aS'H'
aS'C'
aS'C'
aS'C'
aS'O'
aS'N'
aS'H'
aS'H'
aS'C'
aS'C'
aS'O'
aS'N'
asg15
(lp425
g21
ag22
ag86
ag87
aS'HNdelta1'
p426
aS'HNdelta2'
p427
ag24
ag89
ag90
aS'Odelta'
p428
aS'Ndelta'
p429
ag25
ag26
ag27
ag28
ag29
ag30
as(dp430
g32
(lp431
NaNaNaNaNaNaNaNaNaNaNag34
ag35
aNaNaNaNaNastRp432
(dp433
btp434
sS'P'
(I13
I7
g2
(I14
(lp435
(I7
I8
tp436
a(I8
I13
tp437
a(I0
I8
tp438
a(I7
I12
tp439
a(I7
I12
tp440
a(I8
I9
tp441
a(I1
I9
tp442
a(I2
I9
tp443
a(I9
I10
tp444
a(I3
I10
tp445
a(I4
I10
tp446
a(I10
I11
tp447
a(I11
I13
tp448
a(I5
I11
tp449
a(I6
I11
tp450
aI00
(dp451
g15
S'Proline'
p452
s(dp453
g15
(lp454
g26
aS'H3_1'
p455
aS'H3_2'
p456
aS'H4_1'
p457
aS'H4_2'
p458
aS'H5_1'
p459
aS'H5_2'
p460
ag28
ag186
ag185
ag184
ag183
ag29
aS'N1'
p461
asg18
(lp462
S'H'
aS'H'
aS'H'
aS'H'
aS'H'
aS'H'
aS'H'
aS'C'
aS'C'
aS'C'
aS'C'
aS'C'
aS'O'
aS'N'
as(dp463
g32
(lp464
g35
ag34
aNaNaNaNaNaNaNaNaNaNaNaNaNastRp465
(dp466
btp467
sS'S'
(I10
I8
g2
(I11
(lp468
(I0
I3
tp469
a(I1
I3
tp470
a(I3
I4
tp471
a(I2
I4
tp472
a(I7
I10
tp473
a(I7
I8
tp474
a(I5
I10
tp475
a(I6
I7
tp476
a(I8
I9
tp477
a(I8
I9
tp478
a(I3
I7
tp479
aI00
(dp480
g15
S'Serine'
p481
s(dp482
g18
(lp483
S'H'
aS'H'
aS'H'
aS'C'
aS'O'
aS'H'
aS'H'
aS'C'
aS'C'
aS'O'
aS'N'
asg15
(lp484
g21
ag22
aS'HObeta'
p485
ag24
aS'Obeta'
p486
ag25
ag26
ag27
ag28
ag29
ag30
as(dp487
g32
(lp488
NaNaNaNag34
ag35
aNaNaNaNaNastRp489
(dp490
btp491
sS'R'
(I22
I20
g2
(I23
(lp492
(I0
I10
tp493
a(I1
I10
tp494
a(I10
I11
tp495
a(I2
I11
tp496
a(I3
I11
tp497
a(I11
I12
tp498
a(I4
I12
tp499
a(I5
I12
tp500
a(I12
I14
tp501
a(I6
I14
tp502
a(I13
I14
tp503
a(I13
I15
tp504
a(I13
I15
tp505
a(I13
I16
tp506
a(I7
I15
tp507
a(I8
I16
tp508
a(I9
I16
tp509
a(I19
I22
tp510
a(I19
I20
tp511
a(I17
I22
tp512
a(I18
I19
tp513
a(I20
I21
tp514
a(I20
I21
tp515
a(I10
I19
tp516
aI00
(dp517
g15
S'Arginine'
p518
s(dp519
g18
(lp520
S'H'
aS'H'
aS'H'
aS'H'
aS'H'
aS'H'
aS'H'
aS'H'
aS'H'
aS'H'
aS'C'
aS'C'
aS'C'
aS'C'
aS'N'
aS'N'
aS'N'
aS'H'
aS'H'
aS'C'
aS'C'
aS'O'
aS'N'
asg15
(lp521
g21
ag22
ag86
ag87
ag221
ag222
aS'HNdelta'
p522
aS'HNomega1'
p523
aS'HNomega2_1'
p524
aS'HNomega2_2'
p525
ag24
ag89
ag90
aS'guadinino-C'
p526
ag429
aS'Nomega1'
p527
aS'Nomega2'
p528
ag25
ag26
ag27
ag28
ag29
ag30
as(dp529
g32
(lp530
NaNaNaNaNaNaNaNaNaNaNaNaNaNaNaNaNag34
ag35
aNaNaNaNaNastRp531
(dp532
btp533
sS'T'
(I13
I11
g2
(I14
(lp534
(I0
I5
tp535
a(I5
I7
tp536
a(I5
I6
tp537
a(I1
I7
tp538
a(I2
I6
tp539
a(I3
I6
tp540
a(I4
I6
tp541
a(I10
I13
tp542
a(I10
I11
tp543
a(I8
I13
tp544
a(I9
I10
tp545
a(I11
I12
tp546
a(I11
I12
tp547
a(I5
I10
tp548
aI00
(dp549
g15
S'Threonine'
p550
s(dp551
g18
(lp552
S'H'
aS'H'
aS'H'
aS'H'
aS'H'
aS'C'
aS'C'
aS'O'
aS'H'
aS'H'
aS'C'
aS'C'
aS'O'
aS'N'
asg15
(lp553
g217
ag485
ag86
ag87
aS'Hgamma3'
p554
ag24
ag89
ag486
ag25
ag26
ag27
ag28
ag29
ag30
as(dp555
g32
(lp556
NaNaNaNaNaNaNag34
ag35
aNaNaNaNaNastRp557
(dp558
btp559
sS'W'
(I23
I21
g2
(I24
(lp560
(I0
I8
tp561
a(I1
I8
tp562
a(I8
I9
tp563
a(I9
I10
tp564
a(I9
I11
tp565
a(I9
I11
tp566
a(I10
I12
tp567
a(I10
I12
tp568
a(I10
I13
tp569
a(I11
I17
tp570
a(I2
I11
tp571
a(I3
I17
tp572
a(I13
I17
tp573
a(I13
I14
tp574
a(I13
I14
tp575
a(I4
I14
tp576
a(I14
I15
tp577
a(I12
I16
tp578
a(I5
I12
tp579
a(I6
I15
tp580
a(I15
I16
tp581
a(I15
I16
tp582
a(I7
I16
tp583
a(I20
I23
tp584
a(I20
I21
tp585
a(I18
I23
tp586
a(I19
I20
tp587
a(I21
I22
tp588
a(I21
I22
tp589
a(I8
I20
tp590
aI00
(dp591
g15
S'Tryptophan'
p592
s(dp593
g18
(lp594
S'H'
aS'H'
aS'H'
aS'H'
aS'H'
aS'H'
aS'H'
aS'H'
aS'C'
aS'C'
aS'C'
aS'C'
aS'C'
aS'C'
aS'C'
aS'C'
aS'C'
aS'N'
aS'H'
aS'H'
aS'C'
aS'C'
aS'O'
aS'N'
asg15
(lp595
g21
ag22
ag180
aS'HN1'
p596
aS'H7'
p597
ag178
ag176
ag177
ag24
ag185
aS'C3a'
p598
ag186
ag184
aS'C7a'
p599
aS'C7'
p600
ag182
ag183
ag461
ag25
ag26
ag27
ag28
ag29
ag30
as(dp601
g32
(lp602
NaNaNaNaNaNaNaNaNaNaNaNaNaNaNaNaNaNaNaNaNaNaNag34
ag35
aNaNaNaNaNastRp603
(dp604
btp605
sS'V'
(I15
I13
g2
(I16
(lp606
(I7
I8
tp607
a(I7
I9
tp608
a(I0
I7
tp609
a(I1
I8
tp610
a(I2
I8
tp611
a(I3
I8
tp612
a(I4
I9
tp613
a(I5
I9
tp614
a(I6
I9
tp615
a(I12
I15
tp616
a(I12
I13
tp617
a(I10
I15
tp618
a(I11
I12
tp619
a(I13
I14
tp620
a(I13
I14
tp621
a(I7
I12
tp622
aI00
(dp623
g15
S'Valine'
p624
s(dp625
g18
(lp626
S'H'
aS'H'
aS'H'
aS'H'
aS'H'
aS'H'
aS'H'
aS'C'
aS'C'
aS'C'
aS'H'
aS'H'
aS'C'
aS'C'
aS'O'
aS'N'
asg15
(lp627
g217
ag218
ag219
ag220
ag86
ag87
ag554
ag24
ag224
ag89
ag25
ag26
ag27
ag28
ag29
ag30
as(dp628
g32
(lp629
NaNaNaNaNaNaNaNaNag34
ag35
aNaNaNaNaNastRp630
(dp631
btp632
sS'Y'
(I20
I18
g2
(I21
(lp633
(I0
I7
tp634
a(I1
I7
tp635
a(I7
I8
tp636
a(I8
I9
tp637
a(I8
I9
tp638
a(I8
I10
tp639
a(I2
I9
tp640
a(I9
I11
tp641
a(I3
I10
tp642
a(I10
I12
tp643
a(I10
I12
tp644
a(I4
I11
tp645
a(I11
I13
tp646
a(I11
I13
tp647
a(I5
I12
tp648
a(I12
I13
tp649
a(I13
I14
tp650
a(I6
I14
tp651
a(I17
I20
tp652
a(I17
I18
tp653
a(I15
I20
tp654
a(I16
I17
tp655
a(I18
I19
tp656
a(I18
I19
tp657
a(I7
I17
tp658
aI00
(dp659
g15
S'Tyrosine'
p660
s(dp661
g18
(lp662
S'H'
aS'H'
aS'H'
aS'H'
aS'H'
aS'H'
aS'H'
aS'C'
aS'C'
aS'C'
aS'C'
aS'C'
aS'C'
aS'C'
aS'O'
aS'H'
aS'H'
aS'C'
aS'C'
aS'O'
aS'N'
asg15
(lp663
g21
ag22
ag176
ag180
ag177
ag179
aS'HO4'
p664
ag24
ag181
ag182
ag186
ag183
ag185
ag184
aS'O4'
p665
ag25
ag26
ag27
ag28
ag29
ag30
as(dp666
g32
(lp667
NaNaNaNaNaNaNaNaNaNaNaNaNaNaNaNaNaNag34
ag35
aNaNaNaNaNastRp668
(dp669
btp670
s.