(dp0
S'ubiFrags'
p1
(lp2
(lp3
S'LL'
p4
aI0
aI0
accollections
Counter
p5
((dp6
S'H'
p7
I3
sS'N'
p8
I1
stp9
Rp10
aa(lp11
S'LL'
p12
aI0
aI1
ag5
((dp13
g7
I12
sS'C'
p14
I5
sS'S'
p15
I1
sS'O'
p16
I1
sg8
I2
stp17
Rp18
aa(lp19
S'LL'
p20
aI0
aI2
ag5
((dp21
g7
I20
sg14
I10
sg15
I1
sg16
I3
sg8
I4
stp22
Rp23
aa(lp24
S'LL'
p25
aI0
aI3
ag5
((dp26
g7
I31
sg14
I16
sg15
I1
sg16
I4
sg8
I5
stp27
Rp28
aa(lp29
S'LL'
p30
aI0
aI4
ag5
((dp31
g7
I40
sg14
I25
sg15
I1
sg16
I5
sg8
I6
stp32
Rp33
aa(lp34
S'LL'
p35
aI0
aI5
ag5
((dp36
g7
I49
sg14
I30
sg15
I1
sg16
I6
sg8
I7
stp37
Rp38
aa(lp39
S'LL'
p40
aI0
aI6
ag5
((dp41
g7
I61
sg14
I36
sg15
I1
sg16
I7
sg8
I9
stp42
Rp43
aa(lp44
S'LL'
p45
aI0
aI7
ag5
((dp46
g7
I68
sg14
I40
sg15
I1
sg16
I9
sg8
I10
stp47
Rp48
aa(lp49
S'LL'
p50
aI0
aI8
ag5
((dp51
g7
I79
sg14
I46
sg15
I1
sg16
I10
sg8
I11
stp52
Rp53
aa(lp54
S'LL'
p55
aI0
aI9
ag5
((dp56
g7
I86
sg14
I50
sg15
I1
sg16
I12
sg8
I12
stp57
Rp58
aa(lp59
S'LL'
p60
aI0
aI10
ag5
((dp61
g7
I89
sg14
I52
sg15
I1
sg16
I13
sg8
I13
stp62
Rp63
aa(lp64
S'LL'
p65
aI0
aI11
ag5
((dp66
g7
I101
sg14
I58
sg15
I1
sg16
I14
sg8
I15
stp67
Rp68
aa(lp69
S'LL'
p70
aI0
aI12
ag5
((dp71
g7
I108
sg14
I62
sg15
I1
sg16
I16
sg8
I16
stp72
Rp73
aa(lp74
S'LL'
p75
aI0
aI13
ag5
((dp76
g7
I119
sg14
I68
sg15
I1
sg16
I17
sg8
I17
stp77
Rp78
aa(lp79
S'LL'
p80
aI0
aI14
ag5
((dp81
g7
I126
sg14
I72
sg15
I1
sg16
I19
sg8
I18
stp82
Rp83
aa(lp84
S'LL'
p85
aI0
aI15
ag5
((dp86
g7
I137
sg14
I78
sg15
I1
sg16
I20
sg8
I19
stp87
Rp88
aa(lp89
S'LL'
p90
aI0
aI16
ag5
((dp91
g7
I144
sg14
I83
sg15
I1
sg16
I23
sg8
I20
stp92
Rp93
aa(lp94
S'LL'
p95
aI0
aI17
ag5
((dp96
g7
I153
sg14
I88
sg15
I1
sg16
I24
sg8
I21
stp97
Rp98
aa(lp99
S'LL'
p100
aI0
aI19
ag5
((dp101
g7
I167
sg14
I98
sg15
I1
sg16
I28
sg8
I23
stp102
Rp103
aa(lp104
S'LL'
p105
aI0
aI20
ag5
((dp106
g7
I172
sg14
I101
sg15
I1
sg16
I30
sg8
I24
stp107
Rp108
aa(lp109
S'LL'
p110
aI0
aI21
ag5
((dp111
g7
I177
sg14
I105
sg15
I1
sg16
I33
sg8
I25
stp112
Rp113
aa(lp114
S'LL'
p115
aI0
aI22
ag5
((dp116
g7
I184
sg14
I109
sg15
I1
sg16
I35
sg8
I26
stp117
Rp118
aa(lp119
S'LL'
p120
aI0
aI23
ag5
((dp121
g7
I195
sg14
I115
sg15
I1
sg16
I36
sg8
I27
stp122
Rp123
aa(lp124
S'LL'
p125
aI0
aI24
ag5
((dp126
g7
I202
sg14
I120
sg15
I1
sg16
I39
sg8
I28
stp127
Rp128
aa(lp129
S'LL'
p130
aI0
aI25
ag5
((dp131
g7
I208
sg14
I124
sg15
I1
sg16
I41
sg8
I30
stp132
Rp133
aa(lp134
S'LL'
p135
aI0
aI26
ag5
((dp136
g7
I217
sg14
I129
sg15
I1
sg16
I42
sg8
I31
stp137
Rp138
aa(lp139
S'LL'
p140
aI0
aI27
ag5
((dp141
g7
I229
sg14
I135
sg15
I1
sg16
I43
sg8
I33
stp142
Rp143
aa(lp144
S'LL'
p145
aI0
aI28
ag5
((dp146
g7
I234
sg14
I138
sg15
I1
sg16
I44
sg8
I34
stp147
Rp148
aa(lp149
S'LL'
p150
aI0
aI29
ag5
((dp151
g7
I246
sg14
I144
sg15
I1
sg16
I45
sg8
I36
stp152
Rp153
aa(lp154
S'LL'
p155
aI0
aI30
ag5
((dp156
g7
I257
sg14
I150
sg15
I1
sg16
I46
sg8
I37
stp157
Rp158
aa(lp159
S'LL'
p160
aI0
aI31
ag5
((dp161
g7
I265
sg14
I155
sg15
I1
sg16
I48
sg8
I39
stp162
Rp163
aa(lp164
S'LL'
p165
aI0
aI32
ag5
((dp166
g7
I270
sg14
I159
sg15
I1
sg16
I51
sg8
I40
stp167
Rp168
aa(lp169
S'LL'
p170
aI0
aI33
ag5
((dp171
g7
I282
sg14
I165
sg15
I1
sg16
I52
sg8
I42
stp172
Rp173
aa(lp174
S'LL'
p175
aI0
aI34
ag5
((dp176
g7
I289
sg14
I170
sg15
I1
sg16
I55
sg8
I43
stp177
Rp178
aa(lp179
S'LL'
p180
aI0
aI35
ag5
((dp181
g7
I292
sg14
I172
sg15
I1
sg16
I56
sg8
I44
stp182
Rp183
aa(lp184
S'LL'
p185
aI0
aI38
ag5
((dp186
g7
I317
sg14
I188
sg15
I1
sg16
I59
sg8
I47
stp187
Rp188
aa(lp189
S'LL'
p190
aI0
aI39
ag5
((dp191
g7
I322
sg14
I192
sg15
I1
sg16
I62
sg8
I48
stp192
Rp193
aa(lp194
S'LL'
p195
aI0
aI40
ag5
((dp196
g7
I330
sg14
I197
sg15
I1
sg16
I64
sg8
I50
stp197
Rp198
aa(lp199
S'LL'
p200
aI0
aI41
ag5
((dp201
g7
I338
sg14
I202
sg15
I1
sg16
I66
sg8
I52
stp202
Rp203
aa(lp204
S'LL'
p205
aI0
aI42
ag5
((dp206
g7
I350
sg14
I208
sg15
I1
sg16
I67
sg8
I56
stp207
Rp208
aa(lp209
S'LL'
p210
aI0
aI43
ag5
((dp211
g7
I361
sg14
I214
sg15
I1
sg16
I68
sg8
I57
stp212
Rp213
aa(lp214
S'LL'
p215
aI0
aI44
ag5
((dp216
g7
I372
sg14
I220
sg15
I1
sg16
I69
sg8
I58
stp217
Rp218
aa(lp219
S'LL'
p220
aI0
aI45
ag5
((dp221
g7
I381
sg14
I229
sg15
I1
sg16
I70
sg8
I59
stp222
Rp223
aa(lp224
S'LL'
p225
aI0
aI46
ag5
((dp226
g7
I386
sg14
I232
sg15
I1
sg16
I71
sg8
I60
stp227
Rp228
aa(lp229
S'LL'
p230
aI0
aI47
ag5
((dp231
g7
I389
sg14
I234
sg15
I1
sg16
I72
sg8
I61
stp232
Rp233
aa(lp234
S'LL'
p235
aI0
aI48
ag5
((dp236
g7
I401
sg14
I240
sg15
I1
sg16
I73
sg8
I63
stp237
Rp238
aa(lp239
S'LL'
p240
aI0
aI49
ag5
((dp241
g7
I409
sg14
I245
sg15
I1
sg16
I75
sg8
I65
stp242
Rp243
aa(lp244
S'LL'
p245
aI0
aI50
ag5
((dp246
g7
I420
sg14
I251
sg15
I1
sg16
I76
sg8
I66
stp247
Rp248
aa(lp249
S'LL'
p250
aI0
aI51
ag5
((dp251
g7
I427
sg14
I256
sg15
I1
sg16
I79
sg8
I67
stp252
Rp253
aa(lp254
S'LL'
p255
aI0
aI52
ag5
((dp256
g7
I432
sg14
I260
sg15
I1
sg16
I82
sg8
I68
stp257
Rp258
aa(lp259
S'LL'
p260
aI0
aI53
ag5
((dp261
g7
I435
sg14
I262
sg15
I1
sg16
I83
sg8
I69
stp262
Rp263
aa(lp264
S'LL'
p265
aI0
aI54
ag5
((dp266
g7
I447
sg14
I268
sg15
I1
sg16
I84
sg8
I73
stp267
Rp268
aa(lp269
S'LL'
p270
aI0
aI55
ag5
((dp271
g7
I454
sg14
I272
sg15
I1
sg16
I86
sg8
I74
stp272
Rp273
aa(lp274
S'LL'
p275
aI0
aI56
ag5
((dp276
g7
I465
sg14
I278
sg15
I1
sg16
I87
sg8
I75
stp277
Rp278
aa(lp279
S'LL'
p280
aI0
aI57
ag5
((dp281
g7
I470
sg14
I281
sg15
I1
sg16
I89
sg8
I76
stp282
Rp283
aa(lp284
S'LL'
p285
aI0
aI58
ag5
((dp286
g7
I475
sg14
I285
sg15
I1
sg16
I92
sg8
I77
stp287
Rp288
aa(lp289
S'LL'
p290
aI0
aI59
ag5
((dp291
g7
I484
sg14
I294
sg15
I1
sg16
I94
sg8
I78
stp292
Rp293
aa(lp294
S'LL'
p295
aI0
aI60
ag5
((dp296
g7
I490
sg14
I298
sg15
I1
sg16
I96
sg8
I80
stp297
Rp298
aa(lp299
S'LL'
p300
aI0
aI61
ag5
((dp301
g7
I501
sg14
I304
sg15
I1
sg16
I97
sg8
I81
stp302
Rp303
aa(lp304
S'LL'
p305
aI0
aI62
ag5
((dp306
g7
I509
sg14
I309
sg15
I1
sg16
I99
sg8
I83
stp307
Rp308
aa(lp309
S'LL'
p310
aI0
aI63
ag5
((dp311
g7
I521
sg14
I315
sg15
I1
sg16
I100
sg8
I85
stp312
Rp313
aa(lp314
S'LL'
p315
aI0
aI64
ag5
((dp316
g7
I528
sg14
I320
sg15
I1
sg16
I103
sg8
I86
stp317
Rp318
aa(lp319
S'LL'
p320
aI0
aI65
ag5
((dp321
g7
I533
sg14
I323
sg15
I1
sg16
I105
sg8
I87
stp322
Rp323
aa(lp324
S'LL'
p325
aI0
aI66
ag5
((dp326
g7
I540
sg14
I327
sg15
I1
sg16
I107
sg8
I88
stp327
Rp328
aa(lp329
S'LL'
p330
aI0
aI67
ag5
((dp331
g7
I551
sg14
I333
sg15
I1
sg16
I108
sg8
I89
stp332
Rp333
aa(lp334
S'LL'
p335
aI0
aI68
ag5
((dp336
g7
I558
sg14
I339
sg15
I1
sg16
I109
sg8
I92
stp337
Rp338
aa(lp339
S'LL'
p340
aI0
aI69
ag5
((dp341
g7
I569
sg14
I345
sg15
I1
sg16
I110
sg8
I93
stp342
Rp343
aa(lp344
S'LL'
p345
aI0
aI70
ag5
((dp346
g7
I578
sg14
I350
sg15
I1
sg16
I111
sg8
I94
stp347
Rp348
aa(lp349
S'LL'
p350
aI0
aI71
ag5
((dp351
g7
I589
sg14
I356
sg15
I1
sg16
I112
sg8
I95
stp352
Rp353
aa(lp354
S'LL'
p355
aI0
aI72
ag5
((dp356
g7
I601
sg14
I362
sg15
I1
sg16
I113
sg8
I99
stp357
Rp358
aa(lp359
S'LL'
p360
aI0
aI73
ag5
((dp361
g7
I612
sg14
I368
sg15
I1
sg16
I114
sg8
I100
stp362
Rp363
aa(lp364
S'LL'
p365
aI0
aI74
ag5
((dp366
g7
I624
sg14
I374
sg15
I1
sg16
I115
sg8
I104
stp367
Rp368
aa(lp369
S'LL'
p370
aI0
aI75
ag5
((dp371
g7
I627
sg14
I376
sg15
I1
sg16
I116
sg8
I105
stp372
Rp373
aa(lp374
S'LR'
p375
aI0
aI75
ag5
((dp376
g7
I629
sg14
I378
sg15
I1
sg16
I118
sg8
I105
stp377
Rp378
aa(lp379
S'CR'
p380
aI75
aI75
ag5
((dp381
g7
I3
sg14
I2
sg16
I2
stp382
Rp383
aa(lp384
S'CR'
p385
aI74
aI75
ag5
((dp386
g7
I6
sg14
I4
sg16
I3
sg8
I1
stp387
Rp388
aa(lp389
S'CR'
p390
aI73
aI75
ag5
((dp391
g7
I18
sg14
I10
sg16
I4
sg8
I5
stp392
Rp393
aa(lp394
S'CR'
p395
aI72
aI75
ag5
((dp396
g7
I29
sg14
I16
sg16
I5
sg8
I6
stp397
Rp398
aa(lp399
S'CR'
p400
aI71
aI75
ag5
((dp401
g7
I41
sg14
I22
sg16
I6
sg8
I10
stp402
Rp403
aa(lp404
S'CR'
p405
aI70
aI75
ag5
((dp406
g7
I52
sg14
I28
sg16
I7
sg8
I11
stp407
Rp408
aa(lp409
S'CR'
p410
aI69
aI75
ag5
((dp411
g7
I61
sg14
I33
sg16
I8
sg8
I12
stp412
Rp413
aa(lp414
S'CR'
p415
aI68
aI75
ag5
((dp416
g7
I72
sg14
I39
sg16
I9
sg8
I13
stp417
Rp418
aa(lp419
S'CR'
p420
aI67
aI75
ag5
((dp421
g7
I79
sg14
I45
sg16
I10
sg8
I16
stp422
Rp423
aa(lp424
S'CR'
p425
aI66
aI75
ag5
((dp426
g7
I90
sg14
I51
sg16
I11
sg8
I17
stp427
Rp428
aa(lp429
S'CR'
p430
aI65
aI75
ag5
((dp431
g7
I97
sg14
I55
sg16
I13
sg8
I18
stp432
Rp433
aa(lp434
S'CR'
p435
aI64
aI75
ag5
((dp436
g7
I102
sg14
I58
sg16
I15
sg8
I19
stp437
Rp438
aa(lp439
S'CR'
p440
aI63
aI75
ag5
((dp441
g7
I109
sg14
I63
sg16
I18
sg8
I20
stp442
Rp443
aa(lp444
S'CR'
p445
aI62
aI75
ag5
((dp446
g7
I121
sg14
I69
sg16
I19
sg8
I22
stp447
Rp448
aa(lp449
S'CR'
p450
aI61
aI75
ag5
((dp451
g7
I129
sg14
I74
sg16
I21
sg8
I24
stp452
Rp453
aa(lp454
S'CR'
p455
aI60
aI75
ag5
((dp456
g7
I140
sg14
I80
sg16
I22
sg8
I25
stp457
Rp458
aa(lp459
S'CR'
p460
aI59
aI75
ag5
((dp461
g7
I146
sg14
I84
sg16
I24
sg8
I27
stp462
Rp463
aa(lp464
S'CR'
p465
aI58
aI75
ag5
((dp466
g7
I155
sg14
I93
sg16
I26
sg8
I28
stp467
Rp468
aa(lp469
S'CR'
p470
aI57
aI75
ag5
((dp471
g7
I160
sg14
I97
sg16
I29
sg8
I29
stp472
Rp473
aa(lp474
S'CR'
p475
aI56
aI75
ag5
((dp476
g7
I165
sg14
I100
sg16
I31
sg8
I30
stp477
Rp478
aa(lp479
S'CR'
p480
aI55
aI75
ag5
((dp481
g7
I176
sg14
I106
sg16
I32
sg8
I31
stp482
Rp483
aa(lp484
S'CR'
p485
aI54
aI75
ag5
((dp486
g7
I183
sg14
I110
sg16
I34
sg8
I32
stp487
Rp488
aa(lp489
S'CR'
p490
aI53
aI75
ag5
((dp491
g7
I195
sg14
I116
sg16
I35
sg8
I36
stp492
Rp493
aa(lp494
S'CR'
p495
aI52
aI75
ag5
((dp496
g7
I198
sg14
I118
sg16
I36
sg8
I37
stp497
Rp498
aa(lp499
S'CR'
p500
aI51
aI75
ag5
((dp501
g7
I203
sg14
I122
sg16
I39
sg8
I38
stp502
Rp503
aa(lp504
S'CR'
p505
aI50
aI75
ag5
((dp506
g7
I210
sg14
I127
sg16
I42
sg8
I39
stp507
Rp508
aa(lp509
S'CR'
p510
aI49
aI75
ag5
((dp511
g7
I221
sg14
I133
sg16
I43
sg8
I40
stp512
Rp513
aa(lp514
S'CR'
p515
aI48
aI75
ag5
((dp516
g7
I229
sg14
I138
sg16
I45
sg8
I42
stp517
Rp518
aa(lp519
S'CR'
p520
aI47
aI75
ag5
((dp521
g7
I241
sg14
I144
sg16
I46
sg8
I44
stp522
Rp523
aa(lp524
S'CR'
p525
aI46
aI75
ag5
((dp526
g7
I244
sg14
I146
sg16
I47
sg8
I45
stp527
Rp528
aa(lp529
S'CR'
p530
aI45
aI75
ag5
((dp531
g7
I249
sg14
I149
sg16
I48
sg8
I46
stp532
Rp533
aa(lp534
S'CR'
p535
aI44
aI75
ag5
((dp536
g7
I258
sg14
I158
sg16
I49
sg8
I47
stp537
Rp538
aa(lp539
S'CR'
p540
aI43
aI75
ag5
((dp541
g7
I269
sg14
I164
sg16
I50
sg8
I48
stp542
Rp543
aa(lp544
S'CR'
p545
aI42
aI75
ag5
((dp546
g7
I280
sg14
I170
sg16
I51
sg8
I49
stp547
Rp548
aa(lp549
S'CR'
p550
aI41
aI75
ag5
((dp551
g7
I292
sg14
I176
sg16
I52
sg8
I53
stp552
Rp553
aa(lp554
S'CR'
p555
aI40
aI75
ag5
((dp556
g7
I300
sg14
I181
sg16
I54
sg8
I55
stp557
Rp558
aa(lp559
S'CR'
p560
aI39
aI75
ag5
((dp561
g7
I308
sg14
I186
sg16
I56
sg8
I57
stp562
Rp563
aa(lp564
S'CR'
p565
aI38
aI75
ag5
((dp566
g7
I313
sg14
I190
sg16
I59
sg8
I58
stp567
Rp568
aa(lp569
S'CR'
p570
aI35
aI75
ag5
((dp571
g7
I338
sg14
I206
sg16
I62
sg8
I61
stp572
Rp573
aa(lp574
S'CR'
p575
aI34
aI75
ag5
((dp576
g7
I341
sg14
I208
sg16
I63
sg8
I62
stp577
Rp578
aa(lp579
S'CR'
p580
aI33
aI75
ag5
((dp581
g7
I348
sg14
I213
sg16
I66
sg8
I63
stp582
Rp583
aa(lp584
S'CR'
p585
aI32
aI75
ag5
((dp586
g7
I360
sg14
I219
sg16
I67
sg8
I65
stp587
Rp588
aa(lp589
S'CR'
p590
aI31
aI75
ag5
((dp591
g7
I365
sg14
I223
sg16
I70
sg8
I66
stp592
Rp593
aa(lp594
S'CR'
p595
aI30
aI75
ag5
((dp596
g7
I373
sg14
I228
sg16
I72
sg8
I68
stp597
Rp598
aa(lp599
S'CR'
p600
aI29
aI75
ag5
((dp601
g7
I384
sg14
I234
sg16
I73
sg8
I69
stp602
Rp603
aa(lp604
S'CR'
p605
aI28
aI75
ag5
((dp606
g7
I396
sg14
I240
sg16
I74
sg8
I71
stp607
Rp608
aa(lp609
S'CR'
p610
aI27
aI75
ag5
((dp611
g7
I401
sg14
I243
sg16
I75
sg8
I72
stp612
Rp613
aa(lp614
S'CR'
p615
aI26
aI75
ag5
((dp616
g7
I413
sg14
I249
sg16
I76
sg8
I74
stp617
Rp618
aa(lp619
S'CR'
p620
aI25
aI75
ag5
((dp621
g7
I422
sg14
I254
sg16
I77
sg8
I75
stp622
Rp623
aa(lp624
S'CR'
p625
aI24
aI75
ag5
((dp626
g7
I428
sg14
I258
sg16
I79
sg8
I77
stp627
Rp628
aa(lp629
S'CR'
p630
aI23
aI75
ag5
((dp631
g7
I435
sg14
I263
sg16
I82
sg8
I78
stp632
Rp633
aa(lp634
S'CR'
p635
aI22
aI75
ag5
((dp636
g7
I446
sg14
I269
sg16
I83
sg8
I79
stp637
Rp638
aa(lp639
S'CR'
p640
aI21
aI75
ag5
((dp641
g7
I453
sg14
I273
sg16
I85
sg8
I80
stp642
Rp643
aa(lp644
S'CR'
p645
aI20
aI75
ag5
((dp646
g7
I458
sg14
I277
sg16
I88
sg8
I81
stp647
Rp648
aa(lp649
S'CR'
p650
aI19
aI75
ag5
((dp651
g7
I463
sg14
I280
sg16
I90
sg8
I82
stp652
Rp653
aa(lp654
S'CR'
p655
aI17
aI75
ag5
((dp656
g7
I477
sg14
I290
sg16
I94
sg8
I84
stp657
Rp658
aa(lp659
S'CR'
p660
aI16
aI75
ag5
((dp661
g7
I486
sg14
I295
sg16
I95
sg8
I85
stp662
Rp663
aa(lp664
S'CR'
p665
aI15
aI75
ag5
((dp666
g7
I493
sg14
I300
sg16
I98
sg8
I86
stp667
Rp668
aa(lp669
S'CR'
p670
aI14
aI75
ag5
((dp671
g7
I504
sg14
I306
sg16
I99
sg8
I87
stp672
Rp673
aa(lp674
S'CR'
p675
aI13
aI75
ag5
((dp676
g7
I511
sg14
I310
sg16
I101
sg8
I88
stp677
Rp678
aa(lp679
S'CR'
p680
aI12
aI75
ag5
((dp681
g7
I522
sg14
I316
sg16
I102
sg8
I89
stp682
Rp683
aa(lp684
S'CR'
p685
aI11
aI75
ag5
((dp686
g7
I529
sg14
I320
sg16
I104
sg8
I90
stp687
Rp688
aa(lp689
S'CR'
p690
aI10
aI75
ag5
((dp691
g7
I541
sg14
I326
sg16
I105
sg8
I92
stp692
Rp693
aa(lp694
S'CR'
p695
aI9
aI75
ag5
((dp696
g7
I544
sg14
I328
sg16
I106
sg8
I93
stp697
Rp698
aa(lp699
S'CR'
p700
aI8
aI75
ag5
((dp701
g7
I551
sg14
I332
sg16
I108
sg8
I94
stp702
Rp703
aa(lp704
S'CR'
p705
aI7
aI75
ag5
((dp706
g7
I562
sg14
I338
sg16
I109
sg8
I95
stp707
Rp708
aa(lp709
S'CR'
p710
aI6
aI75
ag5
((dp711
g7
I569
sg14
I342
sg16
I111
sg8
I96
stp712
Rp713
aa(lp714
S'CR'
p715
aI5
aI75
ag5
((dp716
g7
I581
sg14
I348
sg16
I112
sg8
I98
stp717
Rp718
aa(lp719
S'CR'
p720
aI4
aI75
ag5
((dp721
g7
I590
sg14
I353
sg16
I113
sg8
I99
stp722
Rp723
aa(lp724
S'CR'
p725
aI3
aI75
ag5
((dp726
g7
I599
sg14
I362
sg16
I114
sg8
I100
stp727
Rp728
aa(lp729
S'CR'
p730
aI2
aI75
ag5
((dp731
g7
I610
sg14
I368
sg16
I115
sg8
I101
stp732
Rp733
aa(lp734
S'CR'
p735
aI1
aI75
ag5
((dp736
g7
I618
sg14
I373
sg16
I117
sg8
I103
stp737
Rp738
aa(lp739
S'CR'
p740
aI0
aI75
ag5
((dp741
g7
I627
sg14
I378
sg15
I1
sg16
I118
sg8
I104
stp742
Rp743
aasS'subPfrags'
p744
(lp745
(lp746
S'LL'
p747
aI0
aI0
ag5
((dp748
g7
I3
sg8
I1
stp749
Rp750
aa(lp751
S'LL'
p752
aI0
aI2
ag5
((dp753
g7
I22
sg14
I11
sg16
I2
sg8
I6
stp754
Rp755
aa(lp756
S'LL'
p757
aI0
aI4
ag5
((dp758
g7
I41
sg14
I22
sg16
I4
sg8
I9
stp759
Rp760
aa(lp761
S'LL'
p762
aI0
aI5
ag5
((dp763
g7
I49
sg14
I27
sg16
I6
sg8
I11
stp764
Rp765
aa(lp766
S'LL'
p767
aI0
aI6
ag5
((dp768
g7
I57
sg14
I32
sg16
I8
sg8
I13
stp769
Rp770
aa(lp771
S'LL'
p772
aI0
aI7
ag5
((dp773
g7
I66
sg14
I41
sg16
I9
sg8
I14
stp774
Rp775
aa(lp776
S'LL'
p777
aI0
aI8
ag5
((dp778
g7
I75
sg14
I50
sg16
I10
sg8
I15
stp779
Rp780
aa(lp781
S'LL'
p782
aI0
aI9
ag5
((dp783
g7
I78
sg14
I52
sg16
I11
sg8
I16
stp784
Rp785
aa(lp786
S'LL'
p787
aI0
aI10
ag5
((dp788
g7
I89
sg14
I58
sg16
I12
sg8
I17
stp789
Rp790
aa(lp791
S'LR'
p792
aI0
aI10
ag5
((dp793
g7
I97
sg14
I63
sg15
I1
sg16
I14
sg8
I17
stp794
Rp795
aa(lp796
S'CR'
p797
aI10
aI10
ag5
((dp798
g7
I9
sg14
I5
sg15
I1
sg16
I2
stp799
Rp800
aa(lp801
S'CR'
p802
aI9
aI10
ag5
((dp803
g7
I20
sg14
I11
sg15
I1
sg16
I3
sg8
I1
stp804
Rp805
aa(lp806
S'CR'
p807
aI8
aI10
ag5
((dp808
g7
I23
sg14
I13
sg15
I1
sg16
I4
sg8
I2
stp809
Rp810
aa(lp811
S'CR'
p812
aI7
aI10
ag5
((dp813
g7
I32
sg14
I22
sg15
I1
sg16
I5
sg8
I3
stp814
Rp815
aa(lp816
S'CR'
p817
aI6
aI10
ag5
((dp818
g7
I41
sg14
I31
sg15
I1
sg16
I6
sg8
I4
stp819
Rp820
aa(lp821
S'CR'
p822
aI5
aI10
ag5
((dp823
g7
I49
sg14
I36
sg15
I1
sg16
I8
sg8
I6
stp824
Rp825
aa(lp826
S'CR'
p827
aI4
aI10
ag5
((dp828
g7
I57
sg14
I41
sg15
I1
sg16
I10
sg8
I8
stp829
Rp830
aa(lp831
S'CR'
p832
aI2
aI10
ag5
((dp833
g7
I76
sg14
I52
sg15
I1
sg16
I12
sg8
I11
stp834
Rp835
aa(lp836
S'CR'
p837
aI0
aI10
ag5
((dp838
g7
I95
sg14
I63
sg15
I1
sg16
I14
sg8
I16
stp839
Rp840
aasS'subProep'
p841
(lp842
S'c0'
p843
aS'c2'
p844
aS'c4'
p845
aS'c5'
p846
aS'c6'
p847
aS'c7'
p848
aS'c8'
p849
aS'c9'
p850
aS'c10'
p851
aS'precursor'
p852
aS'z1'
p853
aS'z2'
p854
aS'z3'
p855
aS'z4'
p856
aS'z5'
p857
aS'z6'
p858
aS'z7'
p859
aS'z9'
p860
aS'z11'
p861
asS'ubiRoep'
p862
(lp863
S'c0'
p864
aS'c1'
p865
aS'c2'
p866
aS'c3'
p867
aS'c4'
p868
aS'c5'
p869
aS'c6'
p870
aS'c7'
p871
aS'c8'
p872
aS'c9'
p873
aS'c10'
p874
aS'c11'
p875
aS'c12'
p876
aS'c13'
p877
aS'c14'
p878
aS'c15'
p879
aS'c16'
p880
aS'c17'
p881
aS'c19'
p882
aS'c20'
p883
aS'c21'
p884
aS'c22'
p885
aS'c23'
p886
aS'c24'
p887
aS'c25'
p888
aS'c26'
p889
aS'c27'
p890
aS'c28'
p891
aS'c29'
p892
aS'c30'
p893
aS'c31'
p894
aS'c32'
p895
aS'c33'
p896
aS'c34'
p897
aS'c35'
p898
aS'c38'
p899
aS'c39'
p900
aS'c40'
p901
aS'c41'
p902
aS'c42'
p903
aS'c43'
p904
aS'c44'
p905
aS'c45'
p906
aS'c46'
p907
aS'c47'
p908
aS'c48'
p909
aS'c49'
p910
aS'c50'
p911
aS'c51'
p912
aS'c52'
p913
aS'c53'
p914
aS'c54'
p915
aS'c55'
p916
aS'c56'
p917
aS'c57'
p918
aS'c58'
p919
aS'c59'
p920
aS'c60'
p921
aS'c61'
p922
aS'c62'
p923
aS'c63'
p924
aS'c64'
p925
aS'c65'
p926
aS'c66'
p927
aS'c67'
p928
aS'c68'
p929
aS'c69'
p930
aS'c70'
p931
aS'c71'
p932
aS'c72'
p933
aS'c73'
p934
aS'c74'
p935
aS'c75'
p936
ag852
aS'z1'
p937
aS'z2'
p938
aS'z3'
p939
aS'z4'
p940
aS'z5'
p941
aS'z6'
p942
aS'z7'
p943
aS'z8'
p944
aS'z9'
p945
aS'z10'
p946
aS'z11'
p947
aS'z12'
p948
aS'z13'
p949
aS'z14'
p950
aS'z15'
p951
aS'z16'
p952
aS'z17'
p953
aS'z18'
p954
aS'z19'
p955
aS'z20'
p956
aS'z21'
p957
aS'z22'
p958
aS'z23'
p959
aS'z24'
p960
aS'z25'
p961
aS'z26'
p962
aS'z27'
p963
aS'z28'
p964
aS'z29'
p965
aS'z30'
p966
aS'z31'
p967
aS'z32'
p968
aS'z33'
p969
aS'z34'
p970
aS'z35'
p971
aS'z36'
p972
aS'z37'
p973
aS'z38'
p974
aS'z41'
p975
aS'z42'
p976
aS'z43'
p977
aS'z44'
p978
aS'z45'
p979
aS'z46'
p980
aS'z47'
p981
aS'z48'
p982
aS'z49'
p983
aS'z50'
p984
aS'z51'
p985
aS'z52'
p986
aS'z53'
p987
aS'z54'
p988
aS'z55'
p989
aS'z56'
p990
aS'z57'
p991
aS'z59'
p992
aS'z60'
p993
aS'z61'
p994
aS'z62'
p995
aS'z63'
p996
aS'z64'
p997
aS'z65'
p998
aS'z66'
p999
aS'z67'
p1000
aS'z68'
p1001
aS'z69'
p1002
aS'z70'
p1003
aS'z71'
p1004
aS'z72'
p1005
aS'z73'
p1006
aS'z74'
p1007
aS'z75'
p1008
aS'z76'
p1009
as.