(dp1
S'ubiFrags'
p2
(lp3
(lp4
S'LL'
p5
aI0
aI0
accollections
Counter
p6
((dp7
S'H'
I3
sS'N'
I1
stRp8
aa(lp9
S'LL'
p10
aI0
aI1
ag6
((dp11
S'H'
I12
sS'C'
I5
sS'S'
I1
sS'O'
I1
sS'N'
I2
stRp12
aa(lp13
S'LL'
p14
aI0
aI2
ag6
((dp15
S'H'
I20
sS'C'
I10
sS'S'
I1
sS'O'
I3
sS'N'
I4
stRp16
aa(lp17
S'LL'
p18
aI0
aI3
ag6
((dp19
S'H'
I31
sS'C'
I16
sS'S'
I1
sS'O'
I4
sS'N'
I5
stRp20
aa(lp21
S'LL'
p22
aI0
aI4
ag6
((dp23
S'H'
I40
sS'C'
I25
sS'S'
I1
sS'O'
I5
sS'N'
I6
stRp24
aa(lp25
S'LL'
p26
aI0
aI5
ag6
((dp27
S'H'
I49
sS'C'
I30
sS'S'
I1
sS'O'
I6
sS'N'
I7
stRp28
aa(lp29
S'LL'
p30
aI0
aI6
ag6
((dp31
S'H'
I61
sS'C'
I36
sS'S'
I1
sS'O'
I7
sS'N'
I9
stRp32
aa(lp33
S'LL'
p34
aI0
aI7
ag6
((dp35
S'H'
I68
sS'C'
I40
sS'S'
I1
sS'O'
I9
sS'N'
I10
stRp36
aa(lp37
S'LL'
p38
aI0
aI8
ag6
((dp39
S'H'
I79
sS'C'
I46
sS'S'
I1
sS'O'
I10
sS'N'
I11
stRp40
aa(lp41
S'LL'
p42
aI0
aI9
ag6
((dp43
S'H'
I86
sS'C'
I50
sS'S'
I1
sS'O'
I12
sS'N'
I12
stRp44
aa(lp45
S'LL'
p46
aI0
aI10
ag6
((dp47
S'H'
I89
sS'C'
I52
sS'S'
I1
sS'O'
I13
sS'N'
I13
stRp48
aa(lp49
S'LL'
p50
aI0
aI11
ag6
((dp51
S'H'
I101
sS'C'
I58
sS'S'
I1
sS'O'
I14
sS'N'
I15
stRp52
aa(lp53
S'LL'
p54
aI0
aI12
ag6
((dp55
S'H'
I108
sS'C'
I62
sS'S'
I1
sS'O'
I16
sS'N'
I16
stRp56
aa(lp57
S'LL'
p58
aI0
aI13
ag6
((dp59
S'H'
I119
sS'C'
I68
sS'S'
I1
sS'O'
I17
sS'N'
I17
stRp60
aa(lp61
S'LL'
p62
aI0
aI14
ag6
((dp63
S'H'
I126
sS'C'
I72
sS'S'
I1
sS'O'
I19
sS'N'
I18
stRp64
aa(lp65
S'LL'
p66
aI0
aI15
ag6
((dp67
S'H'
I137
sS'C'
I78
sS'S'
I1
sS'O'
I20
sS'N'
I19
stRp68
aa(lp69
S'LL'
p70
aI0
aI16
ag6
((dp71
S'H'
I144
sS'C'
I83
sS'S'
I1
sS'O'
I23
sS'N'
I20
stRp72
aa(lp73
S'LL'
p74
aI0
aI17
ag6
((dp75
S'H'
I153
sS'C'
I88
sS'S'
I1
sS'O'
I24
sS'N'
I21
stRp76
aa(lp77
S'LL'
p78
aI0
aI19
ag6
((dp79
S'H'
I167
sS'C'
I98
sS'S'
I1
sS'O'
I28
sS'N'
I23
stRp80
aa(lp81
S'LL'
p82
aI0
aI20
ag6
((dp83
S'H'
I172
sS'C'
I101
sS'S'
I1
sS'O'
I30
sS'N'
I24
stRp84
aa(lp85
S'LL'
p86
aI0
aI21
ag6
((dp87
S'H'
I177
sS'C'
I105
sS'S'
I1
sS'O'
I33
sS'N'
I25
stRp88
aa(lp89
S'LL'
p90
aI0
aI22
ag6
((dp91
S'H'
I184
sS'C'
I109
sS'S'
I1
sS'O'
I35
sS'N'
I26
stRp92
aa(lp93
S'LL'
p94
aI0
aI23
ag6
((dp95
S'H'
I195
sS'C'
I115
sS'S'
I1
sS'O'
I36
sS'N'
I27
stRp96
aa(lp97
S'LL'
p98
aI0
aI24
ag6
((dp99
S'H'
I202
sS'C'
I120
sS'S'
I1
sS'O'
I39
sS'N'
I28
stRp100
aa(lp101
S'LL'
p102
aI0
aI25
ag6
((dp103
S'H'
I208
sS'C'
I124
sS'S'
I1
sS'O'
I41
sS'N'
I30
stRp104
aa(lp105
S'LL'
p106
aI0
aI26
ag6
((dp107
S'H'
I217
sS'C'
I129
sS'S'
I1
sS'O'
I42
sS'N'
I31
stRp108
aa(lp109
S'LL'
p110
aI0
aI27
ag6
((dp111
S'H'
I229
sS'C'
I135
sS'S'
I1
sS'O'
I43
sS'N'
I33
stRp112
aa(lp113
S'LL'
p114
aI0
aI28
ag6
((dp115
S'H'
I234
sS'C'
I138
sS'S'
I1
sS'O'
I44
sS'N'
I34
stRp116
aa(lp117
S'LL'
p118
aI0
aI29
ag6
((dp119
S'H'
I246
sS'C'
I144
sS'S'
I1
sS'O'
I45
sS'N'
I36
stRp120
aa(lp121
S'LL'
p122
aI0
aI30
ag6
((dp123
S'H'
I257
sS'C'
I150
sS'S'
I1
sS'O'
I46
sS'N'
I37
stRp124
aa(lp125
S'LL'
p126
aI0
aI31
ag6
((dp127
S'H'
I265
sS'C'
I155
sS'S'
I1
sS'O'
I48
sS'N'
I39
stRp128
aa(lp129
S'LL'
p130
aI0
aI32
ag6
((dp131
S'H'
I270
sS'C'
I159
sS'S'
I1
sS'O'
I51
sS'N'
I40
stRp132
aa(lp133
S'LL'
p134
aI0
aI33
ag6
((dp135
S'H'
I282
sS'C'
I165
sS'S'
I1
sS'O'
I52
sS'N'
I42
stRp136
aa(lp137
S'LL'
p138
aI0
aI34
ag6
((dp139
S'H'
I289
sS'C'
I170
sS'S'
I1
sS'O'
I55
sS'N'
I43
stRp140
aa(lp141
S'LL'
p142
aI0
aI35
ag6
((dp143
S'H'
I292
sS'C'
I172
sS'S'
I1
sS'O'
I56
sS'N'
I44
stRp144
aa(lp145
S'LL'
p146
aI0
aI38
ag6
((dp147
S'H'
I317
sS'C'
I188
sS'S'
I1
sS'O'
I59
sS'N'
I47
stRp148
aa(lp149
S'LL'
p150
aI0
aI39
ag6
((dp151
S'H'
I322
sS'C'
I192
sS'S'
I1
sS'O'
I62
sS'N'
I48
stRp152
aa(lp153
S'LL'
p154
aI0
aI40
ag6
((dp155
S'H'
I330
sS'C'
I197
sS'S'
I1
sS'O'
I64
sS'N'
I50
stRp156
aa(lp157
S'LL'
p158
aI0
aI41
ag6
((dp159
S'H'
I338
sS'C'
I202
sS'S'
I1
sS'O'
I66
sS'N'
I52
stRp160
aa(lp161
S'LL'
p162
aI0
aI42
ag6
((dp163
S'H'
I350
sS'C'
I208
sS'S'
I1
sS'O'
I67
sS'N'
I56
stRp164
aa(lp165
S'LL'
p166
aI0
aI43
ag6
((dp167
S'H'
I361
sS'C'
I214
sS'S'
I1
sS'O'
I68
sS'N'
I57
stRp168
aa(lp169
S'LL'
p170
aI0
aI44
ag6
((dp171
S'H'
I372
sS'C'
I220
sS'S'
I1
sS'O'
I69
sS'N'
I58
stRp172
aa(lp173
S'LL'
p174
aI0
aI45
ag6
((dp175
S'H'
I381
sS'C'
I229
sS'S'
I1
sS'O'
I70
sS'N'
I59
stRp176
aa(lp177
S'LL'
p178
aI0
aI46
ag6
((dp179
S'H'
I386
sS'C'
I232
sS'S'
I1
sS'O'
I71
sS'N'
I60
stRp180
aa(lp181
S'LL'
p182
aI0
aI47
ag6
((dp183
S'H'
I389
sS'C'
I234
sS'S'
I1
sS'O'
I72
sS'N'
I61
stRp184
aa(lp185
S'LL'
p186
aI0
aI48
ag6
((dp187
S'H'
I401
sS'C'
I240
sS'S'
I1
sS'O'
I73
sS'N'
I63
stRp188
aa(lp189
S'LL'
p190
aI0
aI49
ag6
((dp191
S'H'
I409
sS'C'
I245
sS'S'
I1
sS'O'
I75
sS'N'
I65
stRp192
aa(lp193
S'LL'
p194
aI0
aI50
ag6
((dp195
S'H'
I420
sS'C'
I251
sS'S'
I1
sS'O'
I76
sS'N'
I66
stRp196
aa(lp197
S'LL'
p198
aI0
aI51
ag6
((dp199
S'H'
I427
sS'C'
I256
sS'S'
I1
sS'O'
I79
sS'N'
I67
stRp200
aa(lp201
S'LL'
p202
aI0
aI52
ag6
((dp203
S'H'
I432
sS'C'
I260
sS'S'
I1
sS'O'
I82
sS'N'
I68
stRp204
aa(lp205
S'LL'
p206
aI0
aI53
ag6
((dp207
S'H'
I435
sS'C'
I262
sS'S'
I1
sS'O'
I83
sS'N'
I69
stRp208
aa(lp209
S'LL'
p210
aI0
aI54
ag6
((dp211
S'H'
I447
sS'C'
I268
sS'S'
I1
sS'O'
I84
sS'N'
I73
stRp212
aa(lp213
S'LL'
p214
aI0
aI55
ag6
((dp215
S'H'
I454
sS'C'
I272
sS'S'
I1
sS'O'
I86
sS'N'
I74
stRp216
aa(lp217
S'LL'
p218
aI0
aI56
ag6
((dp219
S'H'
I465
sS'C'
I278
sS'S'
I1
sS'O'
I87
sS'N'
I75
stRp220
aa(lp221
S'LL'
p222
aI0
aI57
ag6
((dp223
S'H'
I470
sS'C'
I281
sS'S'
I1
sS'O'
I89
sS'N'
I76
stRp224
aa(lp225
S'LL'
p226
aI0
aI58
ag6
((dp227
S'H'
I475
sS'C'
I285
sS'S'
I1
sS'O'
I92
sS'N'
I77
stRp228
aa(lp229
S'LL'
p230
aI0
aI59
ag6
((dp231
S'H'
I484
sS'C'
I294
sS'S'
I1
sS'O'
I94
sS'N'
I78
stRp232
aa(lp233
S'LL'
p234
aI0
aI60
ag6
((dp235
S'H'
I490
sS'C'
I298
sS'S'
I1
sS'O'
I96
sS'N'
I80
stRp236
aa(lp237
S'LL'
p238
aI0
aI61
ag6
((dp239
S'H'
I501
sS'C'
I304
sS'S'
I1
sS'O'
I97
sS'N'
I81
stRp240
aa(lp241
S'LL'
p242
aI0
aI62
ag6
((dp243
S'H'
I509
sS'C'
I309
sS'S'
I1
sS'O'
I99
sS'N'
I83
stRp244
aa(lp245
S'LL'
p246
aI0
aI63
ag6
((dp247
S'H'
I521
sS'C'
I315
sS'S'
I1
sS'O'
I100
sS'N'
I85
stRp248
aa(lp249
S'LL'
p250
aI0
aI64
ag6
((dp251
S'H'
I528
sS'C'
I320
sS'S'
I1
sS'O'
I103
sS'N'
I86
stRp252
aa(lp253
S'LL'
p254
aI0
aI65
ag6
((dp255
S'H'
I533
sS'C'
I323
sS'S'
I1
sS'O'
I105
sS'N'
I87
stRp256
aa(lp257
S'LL'
p258
aI0
aI66
ag6
((dp259
S'H'
I540
sS'C'
I327
sS'S'
I1
sS'O'
I107
sS'N'
I88
stRp260
aa(lp261
S'LL'
p262
aI0
aI67
ag6
((dp263
S'H'
I551
sS'C'
I333
sS'S'
I1
sS'O'
I108
sS'N'
I89
stRp264
aa(lp265
S'LL'
p266
aI0
aI68
ag6
((dp267
S'H'
I558
sS'C'
I339
sS'S'
I1
sS'O'
I109
sS'N'
I92
stRp268
aa(lp269
S'LL'
p270
aI0
aI69
ag6
((dp271
S'H'
I569
sS'C'
I345
sS'S'
I1
sS'O'
I110
sS'N'
I93
stRp272
aa(lp273
S'LL'
p274
aI0
aI70
ag6
((dp275
S'H'
I578
sS'C'
I350
sS'S'
I1
sS'O'
I111
sS'N'
I94
stRp276
aa(lp277
S'LL'
p278
aI0
aI71
ag6
((dp279
S'H'
I589
sS'C'
I356
sS'S'
I1
sS'O'
I112
sS'N'
I95
stRp280
aa(lp281
S'LL'
p282
aI0
aI72
ag6
((dp283
S'H'
I601
sS'C'
I362
sS'S'
I1
sS'O'
I113
sS'N'
I99
stRp284
aa(lp285
S'LL'
p286
aI0
aI73
ag6
((dp287
S'H'
I612
sS'C'
I368
sS'S'
I1
sS'O'
I114
sS'N'
I100
stRp288
aa(lp289
S'LL'
p290
aI0
aI74
ag6
((dp291
S'H'
I624
sS'C'
I374
sS'S'
I1
sS'O'
I115
sS'N'
I104
stRp292
aa(lp293
S'LL'
p294
aI0
aI75
ag6
((dp295
S'H'
I627
sS'C'
I376
sS'S'
I1
sS'O'
I116
sS'N'
I105
stRp296
aa(lp297
S'LR'
p298
aI0
aI75
ag6
((dp299
S'H'
I629
sS'C'
I378
sS'S'
I1
sS'O'
I118
sS'N'
I105
stRp300
aa(lp301
S'CR'
p302
aI75
aI75
ag6
((dp303
S'H'
I3
sS'C'
I2
sS'O'
I2
stRp304
aa(lp305
S'CR'
p306
aI74
aI75
ag6
((dp307
S'H'
I6
sS'C'
I4
sS'O'
I3
sS'N'
I1
stRp308
aa(lp309
S'CR'
p310
aI73
aI75
ag6
((dp311
S'H'
I18
sS'C'
I10
sS'O'
I4
sS'N'
I5
stRp312
aa(lp313
S'CR'
p314
aI72
aI75
ag6
((dp315
S'H'
I29
sS'C'
I16
sS'O'
I5
sS'N'
I6
stRp316
aa(lp317
S'CR'
p318
aI71
aI75
ag6
((dp319
S'H'
I41
sS'C'
I22
sS'O'
I6
sS'N'
I10
stRp320
aa(lp321
S'CR'
p322
aI70
aI75
ag6
((dp323
S'H'
I52
sS'C'
I28
sS'O'
I7
sS'N'
I11
stRp324
aa(lp325
S'CR'
p326
aI69
aI75
ag6
((dp327
S'H'
I61
sS'C'
I33
sS'O'
I8
sS'N'
I12
stRp328
aa(lp329
S'CR'
p330
aI68
aI75
ag6
((dp331
S'H'
I72
sS'C'
I39
sS'O'
I9
sS'N'
I13
stRp332
aa(lp333
S'CR'
p334
aI67
aI75
ag6
((dp335
S'H'
I79
sS'C'
I45
sS'O'
I10
sS'N'
I16
stRp336
aa(lp337
S'CR'
p338
aI66
aI75
ag6
((dp339
S'H'
I90
sS'C'
I51
sS'O'
I11
sS'N'
I17
stRp340
aa(lp341
S'CR'
p342
aI65
aI75
ag6
((dp343
S'H'
I97
sS'C'
I55
sS'O'
I13
sS'N'
I18
stRp344
aa(lp345
S'CR'
p346
aI64
aI75
ag6
((dp347
S'H'
I102
sS'C'
I58
sS'O'
I15
sS'N'
I19
stRp348
aa(lp349
S'CR'
p350
aI63
aI75
ag6
((dp351
S'H'
I109
sS'C'
I63
sS'O'
I18
sS'N'
I20
stRp352
aa(lp353
S'CR'
p354
aI62
aI75
ag6
((dp355
S'H'
I121
sS'C'
I69
sS'O'
I19
sS'N'
I22
stRp356
aa(lp357
S'CR'
p358
aI61
aI75
ag6
((dp359
S'H'
I129
sS'C'
I74
sS'O'
I21
sS'N'
I24
stRp360
aa(lp361
S'CR'
p362
aI60
aI75
ag6
((dp363
S'H'
I140
sS'C'
I80
sS'O'
I22
sS'N'
I25
stRp364
aa(lp365
S'CR'
p366
aI59
aI75
ag6
((dp367
S'H'
I146
sS'C'
I84
sS'O'
I24
sS'N'
I27
stRp368
aa(lp369
S'CR'
p370
aI58
aI75
ag6
((dp371
S'H'
I155
sS'C'
I93
sS'O'
I26
sS'N'
I28
stRp372
aa(lp373
S'CR'
p374
aI57
aI75
ag6
((dp375
S'H'
I160
sS'C'
I97
sS'O'
I29
sS'N'
I29
stRp376
aa(lp377
S'CR'
p378
aI56
aI75
ag6
((dp379
S'H'
I165
sS'C'
I100
sS'O'
I31
sS'N'
I30
stRp380
aa(lp381
S'CR'
p382
aI55
aI75
ag6
((dp383
S'H'
I176
sS'C'
I106
sS'O'
I32
sS'N'
I31
stRp384
aa(lp385
S'CR'
p386
aI54
aI75
ag6
((dp387
S'H'
I183
sS'C'
I110
sS'O'
I34
sS'N'
I32
stRp388
aa(lp389
S'CR'
p390
aI53
aI75
ag6
((dp391
S'H'
I195
sS'C'
I116
sS'O'
I35
sS'N'
I36
stRp392
aa(lp393
S'CR'
p394
aI52
aI75
ag6
((dp395
S'H'
I198
sS'C'
I118
sS'O'
I36
sS'N'
I37
stRp396
aa(lp397
S'CR'
p398
aI51
aI75
ag6
((dp399
S'H'
I203
sS'C'
I122
sS'O'
I39
sS'N'
I38
stRp400
aa(lp401
S'CR'
p402
aI50
aI75
ag6
((dp403
S'H'
I210
sS'C'
I127
sS'O'
I42
sS'N'
I39
stRp404
aa(lp405
S'CR'
p406
aI49
aI75
ag6
((dp407
S'H'
I221
sS'C'
I133
sS'O'
I43
sS'N'
I40
stRp408
aa(lp409
S'CR'
p410
aI48
aI75
ag6
((dp411
S'H'
I229
sS'C'
I138
sS'O'
I45
sS'N'
I42
stRp412
aa(lp413
S'CR'
p414
aI47
aI75
ag6
((dp415
S'H'
I241
sS'C'
I144
sS'O'
I46
sS'N'
I44
stRp416
aa(lp417
S'CR'
p418
aI46
aI75
ag6
((dp419
S'H'
I244
sS'C'
I146
sS'O'
I47
sS'N'
I45
stRp420
aa(lp421
S'CR'
p422
aI45
aI75
ag6
((dp423
S'H'
I249
sS'C'
I149
sS'O'
I48
sS'N'
I46
stRp424
aa(lp425
S'CR'
p426
aI44
aI75
ag6
((dp427
S'H'
I258
sS'C'
I158
sS'O'
I49
sS'N'
I47
stRp428
aa(lp429
S'CR'
p430
aI43
aI75
ag6
((dp431
S'H'
I269
sS'C'
I164
sS'O'
I50
sS'N'
I48
stRp432
aa(lp433
S'CR'
p434
aI42
aI75
ag6
((dp435
S'H'
I280
sS'C'
I170
sS'O'
I51
sS'N'
I49
stRp436
aa(lp437
S'CR'
p438
aI41
aI75
ag6
((dp439
S'H'
I292
sS'C'
I176
sS'O'
I52
sS'N'
I53
stRp440
aa(lp441
S'CR'
p442
aI40
aI75
ag6
((dp443
S'H'
I300
sS'C'
I181
sS'O'
I54
sS'N'
I55
stRp444
aa(lp445
S'CR'
p446
aI39
aI75
ag6
((dp447
S'H'
I308
sS'C'
I186
sS'O'
I56
sS'N'
I57
stRp448
aa(lp449
S'CR'
p450
aI38
aI75
ag6
((dp451
S'H'
I313
sS'C'
I190
sS'O'
I59
sS'N'
I58
stRp452
aa(lp453
S'CR'
p454
aI35
aI75
ag6
((dp455
S'H'
I338
sS'C'
I206
sS'O'
I62
sS'N'
I61
stRp456
aa(lp457
S'CR'
p458
aI34
aI75
ag6
((dp459
S'H'
I341
sS'C'
I208
sS'O'
I63
sS'N'
I62
stRp460
aa(lp461
S'CR'
p462
aI33
aI75
ag6
((dp463
S'H'
I348
sS'C'
I213
sS'O'
I66
sS'N'
I63
stRp464
aa(lp465
S'CR'
p466
aI32
aI75
ag6
((dp467
S'H'
I360
sS'C'
I219
sS'O'
I67
sS'N'
I65
stRp468
aa(lp469
S'CR'
p470
aI31
aI75
ag6
((dp471
S'H'
I365
sS'C'
I223
sS'O'
I70
sS'N'
I66
stRp472
aa(lp473
S'CR'
p474
aI30
aI75
ag6
((dp475
S'H'
I373
sS'C'
I228
sS'O'
I72
sS'N'
I68
stRp476
aa(lp477
S'CR'
p478
aI29
aI75
ag6
((dp479
S'H'
I384
sS'C'
I234
sS'O'
I73
sS'N'
I69
stRp480
aa(lp481
S'CR'
p482
aI28
aI75
ag6
((dp483
S'H'
I396
sS'C'
I240
sS'O'
I74
sS'N'
I71
stRp484
aa(lp485
S'CR'
p486
aI27
aI75
ag6
((dp487
S'H'
I401
sS'C'
I243
sS'O'
I75
sS'N'
I72
stRp488
aa(lp489
S'CR'
p490
aI26
aI75
ag6
((dp491
S'H'
I413
sS'C'
I249
sS'O'
I76
sS'N'
I74
stRp492
aa(lp493
S'CR'
p494
aI25
aI75
ag6
((dp495
S'H'
I422
sS'C'
I254
sS'O'
I77
sS'N'
I75
stRp496
aa(lp497
S'CR'
p498
aI24
aI75
ag6
((dp499
S'H'
I428
sS'C'
I258
sS'O'
I79
sS'N'
I77
stRp500
aa(lp501
S'CR'
p502
aI23
aI75
ag6
((dp503
S'H'
I435
sS'C'
I263
sS'O'
I82
sS'N'
I78
stRp504
aa(lp505
S'CR'
p506
aI22
aI75
ag6
((dp507
S'H'
I446
sS'C'
I269
sS'O'
I83
sS'N'
I79
stRp508
aa(lp509
S'CR'
p510
aI21
aI75
ag6
((dp511
S'H'
I453
sS'C'
I273
sS'O'
I85
sS'N'
I80
stRp512
aa(lp513
S'CR'
p514
aI20
aI75
ag6
((dp515
S'H'
I458
sS'C'
I277
sS'O'
I88
sS'N'
I81
stRp516
aa(lp517
S'CR'
p518
aI19
aI75
ag6
((dp519
S'H'
I463
sS'C'
I280
sS'O'
I90
sS'N'
I82
stRp520
aa(lp521
S'CR'
p522
aI17
aI75
ag6
((dp523
S'H'
I477
sS'C'
I290
sS'O'
I94
sS'N'
I84
stRp524
aa(lp525
S'CR'
p526
aI16
aI75
ag6
((dp527
S'H'
I486
sS'C'
I295
sS'O'
I95
sS'N'
I85
stRp528
aa(lp529
S'CR'
p530
aI15
aI75
ag6
((dp531
S'H'
I493
sS'C'
I300
sS'O'
I98
sS'N'
I86
stRp532
aa(lp533
S'CR'
p534
aI14
aI75
ag6
((dp535
S'H'
I504
sS'C'
I306
sS'O'
I99
sS'N'
I87
stRp536
aa(lp537
S'CR'
p538
aI13
aI75
ag6
((dp539
S'H'
I511
sS'C'
I310
sS'O'
I101
sS'N'
I88
stRp540
aa(lp541
S'CR'
p542
aI12
aI75
ag6
((dp543
S'H'
I522
sS'C'
I316
sS'O'
I102
sS'N'
I89
stRp544
aa(lp545
S'CR'
p546
aI11
aI75
ag6
((dp547
S'H'
I529
sS'C'
I320
sS'O'
I104
sS'N'
I90
stRp548
aa(lp549
S'CR'
p550
aI10
aI75
ag6
((dp551
S'H'
I541
sS'C'
I326
sS'O'
I105
sS'N'
I92
stRp552
aa(lp553
S'CR'
p554
aI9
aI75
ag6
((dp555
S'H'
I544
sS'C'
I328
sS'O'
I106
sS'N'
I93
stRp556
aa(lp557
S'CR'
p558
aI8
aI75
ag6
((dp559
S'H'
I551
sS'C'
I332
sS'O'
I108
sS'N'
I94
stRp560
aa(lp561
S'CR'
p562
aI7
aI75
ag6
((dp563
S'H'
I562
sS'C'
I338
sS'O'
I109
sS'N'
I95
stRp564
aa(lp565
S'CR'
p566
aI6
aI75
ag6
((dp567
S'H'
I569
sS'C'
I342
sS'O'
I111
sS'N'
I96
stRp568
aa(lp569
S'CR'
p570
aI5
aI75
ag6
((dp571
S'H'
I581
sS'C'
I348
sS'O'
I112
sS'N'
I98
stRp572
aa(lp573
S'CR'
p574
aI4
aI75
ag6
((dp575
S'H'
I590
sS'C'
I353
sS'O'
I113
sS'N'
I99
stRp576
aa(lp577
S'CR'
p578
aI3
aI75
ag6
((dp579
S'H'
I599
sS'C'
I362
sS'O'
I114
sS'N'
I100
stRp580
aa(lp581
S'CR'
p582
aI2
aI75
ag6
((dp583
S'H'
I610
sS'C'
I368
sS'O'
I115
sS'N'
I101
stRp584
aa(lp585
S'CR'
p586
aI1
aI75
ag6
((dp587
S'H'
I618
sS'C'
I373
sS'O'
I117
sS'N'
I103
stRp588
aa(lp589
S'CR'
p590
aI0
aI75
ag6
((dp591
S'H'
I627
sS'C'
I378
sS'S'
I1
sS'O'
I118
sS'N'
I104
stRp592
aasS'subPfrags'
p593
(lp594
(lp595
S'LL'
p596
aI0
aI0
ag6
((dp597
S'H'
I3
sS'N'
I1
stRp598
aa(lp599
S'LL'
p600
aI0
aI2
ag6
((dp601
S'H'
I22
sS'C'
I11
sS'O'
I2
sS'N'
I6
stRp602
aa(lp603
S'LL'
p604
aI0
aI4
ag6
((dp605
S'H'
I41
sS'C'
I22
sS'O'
I4
sS'N'
I9
stRp606
aa(lp607
S'LL'
p608
aI0
aI5
ag6
((dp609
S'H'
I49
sS'C'
I27
sS'O'
I6
sS'N'
I11
stRp610
aa(lp611
S'LL'
p612
aI0
aI6
ag6
((dp613
S'H'
I57
sS'C'
I32
sS'O'
I8
sS'N'
I13
stRp614
aa(lp615
S'LL'
p616
aI0
aI7
ag6
((dp617
S'H'
I66
sS'C'
I41
sS'O'
I9
sS'N'
I14
stRp618
aa(lp619
S'LL'
p620
aI0
aI8
ag6
((dp621
S'H'
I75
sS'C'
I50
sS'O'
I10
sS'N'
I15
stRp622
aa(lp623
S'LL'
p624
aI0
aI9
ag6
((dp625
S'H'
I78
sS'C'
I52
sS'O'
I11
sS'N'
I16
stRp626
aa(lp627
S'LL'
p628
aI0
aI10
ag6
((dp629
S'H'
I89
sS'C'
I58
sS'O'
I12
sS'N'
I17
stRp630
aa(lp631
S'LR'
p632
aI0
aI10
ag6
((dp633
S'H'
I97
sS'C'
I63
sS'S'
I1
sS'O'
I14
sS'N'
I17
stRp634
aa(lp635
S'CR'
p636
aI10
aI10
ag6
((dp637
S'H'
I9
sS'C'
I5
sS'S'
I1
sS'O'
I2
stRp638
aa(lp639
S'CR'
p640
aI9
aI10
ag6
((dp641
S'H'
I20
sS'C'
I11
sS'S'
I1
sS'O'
I3
sS'N'
I1
stRp642
aa(lp643
S'CR'
p644
aI8
aI10
ag6
((dp645
S'H'
I23
sS'C'
I13
sS'S'
I1
sS'O'
I4
sS'N'
I2
stRp646
aa(lp647
S'CR'
p648
aI7
aI10
ag6
((dp649
S'H'
I32
sS'C'
I22
sS'S'
I1
sS'O'
I5
sS'N'
I3
stRp650
aa(lp651
S'CR'
p652
aI6
aI10
ag6
((dp653
S'H'
I41
sS'C'
I31
sS'S'
I1
sS'O'
I6
sS'N'
I4
stRp654
aa(lp655
S'CR'
p656
aI5
aI10
ag6
((dp657
S'H'
I49
sS'C'
I36
sS'S'
I1
sS'O'
I8
sS'N'
I6
stRp658
aa(lp659
S'CR'
p660
aI4
aI10
ag6
((dp661
S'H'
I57
sS'C'
I41
sS'S'
I1
sS'O'
I10
sS'N'
I8
stRp662
aa(lp663
S'CR'
p664
aI2
aI10
ag6
((dp665
S'H'
I76
sS'C'
I52
sS'S'
I1
sS'O'
I12
sS'N'
I11
stRp666
aa(lp667
S'CR'
p668
aI0
aI10
ag6
((dp669
S'H'
I95
sS'C'
I63
sS'S'
I1
sS'O'
I14
sS'N'
I16
stRp670
aasS'subProep'
p671
(lp672
S'c0'
p673
aS'c2'
p674
aS'c4'
p675
aS'c5'
p676
aS'c6'
p677
aS'c7'
p678
aS'c8'
p679
aS'c9'
p680
aS'c10'
p681
aS'precursor'
p682
aS'z1'
p683
aS'z2'
p684
aS'z3'
p685
aS'z4'
p686
aS'z5'
p687
aS'z6'
p688
aS'z7'
p689
aS'z9'
p690
aS'z11'
p691
asS'ubiRoep'
p692
(lp693
S'c0'
p694
aS'c1'
p695
aS'c2'
p696
aS'c3'
p697
aS'c4'
p698
aS'c5'
p699
aS'c6'
p700
aS'c7'
p701
aS'c8'
p702
aS'c9'
p703
aS'c10'
p704
aS'c11'
p705
aS'c12'
p706
aS'c13'
p707
aS'c14'
p708
aS'c15'
p709
aS'c16'
p710
aS'c17'
p711
aS'c19'
p712
aS'c20'
p713
aS'c21'
p714
aS'c22'
p715
aS'c23'
p716
aS'c24'
p717
aS'c25'
p718
aS'c26'
p719
aS'c27'
p720
aS'c28'
p721
aS'c29'
p722
aS'c30'
p723
aS'c31'
p724
aS'c32'
p725
aS'c33'
p726
aS'c34'
p727
aS'c35'
p728
aS'c38'
p729
aS'c39'
p730
aS'c40'
p731
aS'c41'
p732
aS'c42'
p733
aS'c43'
p734
aS'c44'
p735
aS'c45'
p736
aS'c46'
p737
aS'c47'
p738
aS'c48'
p739
aS'c49'
p740
aS'c50'
p741
aS'c51'
p742
aS'c52'
p743
aS'c53'
p744
aS'c54'
p745
aS'c55'
p746
aS'c56'
p747
aS'c57'
p748
aS'c58'
p749
aS'c59'
p750
aS'c60'
p751
aS'c61'
p752
aS'c62'
p753
aS'c63'
p754
aS'c64'
p755
aS'c65'
p756
aS'c66'
p757
aS'c67'
p758
aS'c68'
p759
aS'c69'
p760
aS'c70'
p761
aS'c71'
p762
aS'c72'
p763
aS'c73'
p764
aS'c74'
p765
aS'c75'
p766
ag682
aS'z1'
p767
aS'z2'
p768
aS'z3'
p769
aS'z4'
p770
aS'z5'
p771
aS'z6'
p772
aS'z7'
p773
aS'z8'
p774
aS'z9'
p775
aS'z10'
p776
aS'z11'
p777
aS'z12'
p778
aS'z13'
p779
aS'z14'
p780
aS'z15'
p781
aS'z16'
p782
aS'z17'
p783
aS'z18'
p784
aS'z19'
p785
aS'z20'
p786
aS'z21'
p787
aS'z22'
p788
aS'z23'
p789
aS'z24'
p790
aS'z25'
p791
aS'z26'
p792
aS'z27'
p793
aS'z28'
p794
aS'z29'
p795
aS'z30'
p796
aS'z31'
p797
aS'z32'
p798
aS'z33'
p799
aS'z34'
p800
aS'z35'
p801
aS'z36'
p802
aS'z37'
p803
aS'z38'
p804
aS'z41'
p805
aS'z42'
p806
aS'z43'
p807
aS'z44'
p808
aS'z45'
p809
aS'z46'
p810
aS'z47'
p811
aS'z48'
p812
aS'z49'
p813
aS'z50'
p814
aS'z51'
p815
aS'z52'
p816
aS'z53'
p817
aS'z54'
p818
aS'z55'
p819
aS'z56'
p820
aS'z57'
p821
aS'z59'
p822
aS'z60'
p823
aS'z61'
p824
aS'z62'
p825
aS'z63'
p826
aS'z64'
p827
aS'z65'
p828
aS'z66'
p829
aS'z67'
p830
aS'z68'
p831
aS'z69'
p832
aS'z70'
p833
aS'z71'
p834
aS'z72'
p835
aS'z73'
p836
aS'z74'
p837
aS'z75'
p838
aS'z76'
p839
as.